libdeepin-kcmkwincommon.so.5 libdeepin-kwinxrenderutils13 #MINVER#
 _ZN4KWin12EffectsModel11qt_metacallEN11QMetaObject4CallEiPPv@Base 4:5.24.3-deepin.1.9
 _ZN4KWin12EffectsModel11qt_metacastEPKc@Base 4:5.24.3-deepin.1.9
 _ZN4KWin12EffectsModel16requestConfigureERK11QModelIndexP7QWindow@Base 4:5.24.3-deepin.1.9
 _ZN4KWin12EffectsModel16staticMetaObjectE@Base 4:5.24.3-deepin.1.9
 _ZN4KWin12EffectsModel17loadPluginEffectsERK12KConfigGroup@Base 4:5.24.3-deepin.1.9
 _ZN4KWin12EffectsModel18loadBuiltInEffectsERK12KConfigGroup@Base 4:5.24.3-deepin.1.9
 _ZN4KWin12EffectsModel18updateEffectStatusERK11QModelIndexNS0_6StatusE@Base 4:5.24.3-deepin.1.9
 _ZN4KWin12EffectsModel21loadJavascriptEffectsERK12KConfigGroup@Base 4:5.24.3-deepin.1.9
 _ZN4KWin12EffectsModel4loadENS0_11LoadOptionsE@Base 4:5.24.3-deepin.1.9
 _ZN4KWin12EffectsModel4saveEv@Base 4:5.24.3-deepin.1.9
 _ZN4KWin12EffectsModel6loadedEv@Base 4:5.24.3-deepin.1.9
 _ZN4KWin12EffectsModel7setDataERK11QModelIndexRK8QVarianti@Base 4:5.24.3-deepin.1.9
 _ZN4KWin12EffectsModel8defaultsEv@Base 4:5.24.3-deepin.1.9
 _ZN4KWin12EffectsModelC1EP7QObject@Base 4:5.24.3-deepin.1.9
 _ZN4KWin12EffectsModelC2EP7QObject@Base 4:5.24.3-deepin.1.9
 _ZNK4KWin12EffectsModel10isDefaultsEv@Base 4:5.24.3-deepin.1.9
 _ZNK4KWin12EffectsModel10metaObjectEv@Base 4:5.24.3-deepin.1.9
 _ZNK4KWin12EffectsModel11columnCountERK11QModelIndex@Base 4:5.24.3-deepin.1.9
 _ZNK4KWin12EffectsModel11shouldStoreERKNS0_10EffectDataE@Base 4:5.24.3-deepin.1.9
 _ZNK4KWin12EffectsModel14findByPluginIdERK7QString@Base 4:5.24.3-deepin.1.9
 _ZNK4KWin12EffectsModel4dataERK11QModelIndexi@Base 4:5.24.3-deepin.1.9
 _ZNK4KWin12EffectsModel5indexEiiRK11QModelIndex@Base 4:5.24.3-deepin.1.9
 _ZNK4KWin12EffectsModel6parentERK11QModelIndex@Base 4:5.24.3-deepin.1.9
 _ZNK4KWin12EffectsModel8rowCountERK11QModelIndex@Base 4:5.24.3-deepin.1.9
 _ZNK4KWin12EffectsModel9needsSaveEv@Base 4:5.24.3-deepin.1.9
 _ZNK4KWin12EffectsModel9roleNamesEv@Base 4:5.24.3-deepin.1.9
 _ZTIN4KWin12EffectsModelE@Base 4:5.24.3-deepin.1.9
 _ZTSN4KWin12EffectsModelE@Base 4:5.24.3-deepin.1.9
 _ZTVN4KWin12EffectsModelE@Base 4:5.24.3-deepin.1.9
 _ZZZN14KPluginFactory17instantiatePluginI8KCModuleEENS_6ResultIT_EERK15KPluginMetaDataP7QObjectRK5QListI8QVariantEENKUlvE_clEvE15qstring_literal@Base 4:5.24.3-deepin.1.9
libdeepin-kwin.so.5 libdeepin-kwinxrenderutils13 #MINVER#
 _ZGVZN9QMetaType17registerConverterI8QJSValue5QRectPFS2_RKS1_EEEbT1_E1f@Base 4:5.24.3-deepin.1.9
 _ZGVZN9QMetaType17registerConverterI8QJSValue5QSizePFS2_RKS1_EEEbT1_E1f@Base 4:5.24.3-deepin.1.9
 _ZGVZN9QMetaType17registerConverterI8QJSValue6QPointPFS2_RKS1_EEEbT1_E1f@Base 4:5.24.3-deepin.1.9
 _ZN4KWin10Activities10reallyStopERK7QString@Base 4:5.24.3-deepin.1.9
 _ZN4KWin10Activities10setCurrentERK7QString@Base 4:5.24.3-deepin.1.9
 _ZN4KWin10Activities11qt_metacallEN11QMetaObject4CallEiPPv@Base 4:5.24.3-deepin.1.9
 _ZN4KWin10Activities11qt_metacastEPKc@Base 4:5.24.3-deepin.1.9
 _ZN4KWin10Activities11slotRemovedERK7QString@Base 4:5.24.3-deepin.1.9
 _ZN4KWin10Activities14currentChangedERK7QString@Base 4:5.24.3-deepin.1.9
 _ZN4KWin10Activities16staticMetaObjectE@Base 4:5.24.3-deepin.1.9
 _ZN4KWin10Activities18slotCurrentChangedERK7QString@Base 4:5.24.3-deepin.1.9
 _ZN4KWin10Activities22toggleClientOnActivityEPNS_14AbstractClientERK7QStringb@Base 4:5.24.3-deepin.1.9
 _ZN4KWin10Activities4stopERK7QString@Base 4:5.24.3-deepin.1.9
 _ZN4KWin10Activities5addedERK7QString@Base 4:5.24.3-deepin.1.9
 _ZN4KWin10Activities5startERK7QString@Base 4:5.24.3-deepin.1.9
 _ZN4KWin10Activities6createEP7QObject@Base 4:5.24.3-deepin.1.9
 _ZN4KWin10Activities6s_selfE@Base 4:5.24.3-deepin.1.9
 _ZN4KWin10Activities7removedERK7QString@Base 4:5.24.3-deepin.1.9
 _ZN4KWin10ActivitiesC1EP7QObject@Base 4:5.24.3-deepin.1.9
 _ZN4KWin10ActivitiesC2EP7QObject@Base 4:5.24.3-deepin.1.9
 _ZN4KWin10ActivitiesD0Ev@Base 4:5.24.3-deepin.1.9
 _ZN4KWin10ActivitiesD1Ev@Base 4:5.24.3-deepin.1.9
 _ZN4KWin10ActivitiesD2Ev@Base 4:5.24.3-deepin.1.9
 _ZN4KWin10Compositor10cleanupX11Ev@Base 4:5.24.3-deepin.1.9
 _ZN4KWin10Compositor10setupStartEv@Base 4:5.24.3-deepin.1.9
 _ZN4KWin10Compositor11qt_metacallEN11QMetaObject4CallEiPPv@Base 4:5.24.3-deepin.1.9
 _ZN4KWin10Compositor11qt_metacastEPKc@Base 4:5.24.3-deepin.1.9
 _ZN4KWin10Compositor12reinitializeEv@Base 4:5.24.3-deepin.1.9
 _ZN4KWin10Compositor12s_compositorE@Base 4:5.24.3-deepin.1.9
 _ZN4KWin10Compositor12sceneCreatedEv@Base 4:5.24.3-deepin.1.9
 _ZN4KWin10Compositor13configChangedEv@Base 4:5.24.3-deepin.1.9
 _ZN4KWin10Compositor13initializeX11Ev@Base 4:5.24.3-deepin.1.9
 _ZN4KWin10Compositor14aboutToDestroyEv@Base 4:5.24.3-deepin.1.9
 _ZN4KWin10Compositor15scheduleRepaintEv@Base 4:5.24.3-deepin.1.9
 _ZN4KWin10Compositor16staticMetaObjectE@Base 4:5.24.3-deepin.1.9
 _ZN4KWin10Compositor18compositingToggledEb@Base 4:5.24.3-deepin.1.9
 _ZN4KWin10Compositor18registerRenderLoopEPNS_10RenderLoopEPNS_14AbstractOutputE@Base 4:5.24.3-deepin.1.9
 _ZN4KWin10Compositor19handleOutputEnabledEPNS_14AbstractOutputE@Base 4:5.24.3-deepin.1.9
 _ZN4KWin10Compositor19keepSupportPropertyEj@Base 4:5.24.3-deepin.1.9
 _ZN4KWin10Compositor20handleFrameRequestedEPNS_10RenderLoopE@Base 4:5.24.3-deepin.1.9
 _ZN4KWin10Compositor20handleOutputDisabledEPNS_14AbstractOutputE@Base 4:5.24.3-deepin.1.9
 _ZN4KWin10Compositor20startupWithWorkspaceEv@Base 4:5.24.3-deepin.1.9
 _ZN4KWin10Compositor20unregisterRenderLoopEPNS_10RenderLoopE@Base 4:5.24.3-deepin.1.9
 _ZN4KWin10Compositor21removeSupportPropertyEj@Base 4:5.24.3-deepin.1.9
 _ZN4KWin10Compositor24aboutToToggleCompositingEv@Base 4:5.24.3-deepin.1.9
 _ZN4KWin10Compositor24attemptOpenGLCompositingEv@Base 4:5.24.3-deepin.1.9
 _ZN4KWin10Compositor26attemptQPainterCompositingEv@Base 4:5.24.3-deepin.1.9
 _ZN4KWin10Compositor26destroyCompositorSelectionEv@Base 4:5.24.3-deepin.1.9
 _ZN4KWin10Compositor26releaseCompositorSelectionEv@Base 4:5.24.3-deepin.1.9
 _ZN4KWin10Compositor29deleteUnusedSupportPropertiesEv@Base 4:5.24.3-deepin.1.9
 _ZN4KWin10Compositor4selfEv@Base 4:5.24.3-deepin.1.9
 _ZN4KWin10Compositor4stopEv@Base 4:5.24.3-deepin.1.9
 _ZN4KWin10Compositor8isActiveEv@Base 4:5.24.3-deepin.1.9
 _ZN4KWin10Compositor9compositeEPNS_10RenderLoopE@Base 4:5.24.3-deepin.1.9
 _ZN4KWin10CompositorC1EP7QObject@Base 4:5.24.3-deepin.1.9
 _ZN4KWin10CompositorC2EP7QObject@Base 4:5.24.3-deepin.1.9
 _ZN4KWin10CompositorD0Ev@Base 4:5.24.3-deepin.1.9
 _ZN4KWin10CompositorD1Ev@Base 4:5.24.3-deepin.1.9
 _ZN4KWin10CompositorD2Ev@Base 4:5.24.3-deepin.1.9
 _ZN4KWin10Decoration16DecorationBridge10initPluginEv@Base 4:5.24.3-deepin.1.9
 _ZN4KWin10Decoration16DecorationBridge10readPluginEv@Base 4:5.24.3-deepin.1.9
 _ZN4KWin10Decoration16DecorationBridge11qt_metacallEN11QMetaObject4CallEiPPv@Base 4:5.24.3-deepin.1.9
 _ZN4KWin10Decoration16DecorationBridge11qt_metacastEPKc@Base 4:5.24.3-deepin.1.9
 _ZN4KWin10Decoration16DecorationBridge11reconfigureEv@Base 4:5.24.3-deepin.1.9
 _ZN4KWin10Decoration16DecorationBridge12createClientEPN12KDecoration215DecoratedClientEPNS2_10DecorationE@Base 4:5.24.3-deepin.1.9
 _ZN4KWin10Decoration16DecorationBridge12loadMetaDataERK11QJsonObject@Base 4:5.24.3-deepin.1.9
 _ZN4KWin10Decoration16DecorationBridge14metaDataLoadedEv@Base 4:5.24.3-deepin.1.9
 _ZN4KWin10Decoration16DecorationBridge16createDecorationEPNS_14AbstractClientE@Base 4:5.24.3-deepin.1.9
 _ZN4KWin10Decoration16DecorationBridge16staticMetaObjectE@Base 4:5.24.3-deepin.1.9
 _ZN4KWin10Decoration16DecorationBridge21readDecorationOptionsEv@Base 4:5.24.3-deepin.1.9
 _ZN4KWin10Decoration16DecorationBridge4initEv@Base 4:5.24.3-deepin.1.9
 _ZN4KWin10Decoration16DecorationBridge6createEP7QObject@Base 4:5.24.3-deepin.1.9
 _ZN4KWin10Decoration16DecorationBridge6s_selfE@Base 4:5.24.3-deepin.1.9
 _ZN4KWin10Decoration16DecorationBridge8settingsEPN12KDecoration218DecorationSettingsE@Base 4:5.24.3-deepin.1.9
 _ZN4KWin10Decoration16DecorationBridge9findThemeERK4QMapI7QString8QVariantE@Base 4:5.24.3-deepin.1.9
 _ZN4KWin10Decoration16DecorationBridge9hasPluginEv@Base 4:5.24.3-deepin.1.9
 _ZN4KWin10Decoration16DecorationBridgeC1EP7QObject@Base 4:5.24.3-deepin.1.9
 _ZN4KWin10Decoration16DecorationBridgeC2EP7QObject@Base 4:5.24.3-deepin.1.9
 _ZN4KWin10Decoration16DecorationBridgeD0Ev@Base 4:5.24.3-deepin.1.9
 _ZN4KWin10Decoration16DecorationBridgeD1Ev@Base 4:5.24.3-deepin.1.9
 _ZN4KWin10Decoration16DecorationBridgeD2Ev@Base 4:5.24.3-deepin.1.9
 _ZN4KWin10RenderLoop10beginFrameEv@Base 4:5.24.3-deepin.1.9
 _ZN4KWin10RenderLoop11qt_metacallEN11QMetaObject4CallEiPPv@Base 4:5.24.3-deepin.1.9
 _ZN4KWin10RenderLoop11qt_metacastEPKc@Base 4:5.24.3-deepin.1.9
 _ZN4KWin10RenderLoop12setVrrPolicyENS0_9VrrPolicyE@Base 4:5.24.3-deepin.1.9
 _ZN4KWin10RenderLoop14framePresentedEPS0_NSt6chrono8durationIlSt5ratioILl1ELl1000000000EEEE@Base 4:5.24.3-deepin.1.9
 _ZN4KWin10RenderLoop14frameRequestedEPS0_@Base 4:5.24.3-deepin.1.9
 _ZN4KWin10RenderLoop14setRefreshRateEi@Base 4:5.24.3-deepin.1.9
 _ZN4KWin10RenderLoop15scheduleRepaintEPNS_4ItemE@Base 4:5.24.3-deepin.1.9
 _ZN4KWin10RenderLoop16staticMetaObjectE@Base 4:5.24.3-deepin.1.9
 _ZN4KWin10RenderLoop18refreshRateChangedEv@Base 4:5.24.3-deepin.1.9
 _ZN4KWin10RenderLoop20setFullscreenSurfaceEPNS_4ItemE@Base 4:5.24.3-deepin.1.9
 _ZN4KWin10RenderLoop7inhibitEv@Base 4:5.24.3-deepin.1.9
 _ZN4KWin10RenderLoop8endFrameEv@Base 4:5.24.3-deepin.1.9
 _ZN4KWin10RenderLoop9uninhibitEv@Base 4:5.24.3-deepin.1.9
 _ZN4KWin10RenderLoopC1EP7QObject@Base 4:5.24.3-deepin.1.9
 _ZN4KWin10RenderLoopC2EP7QObject@Base 4:5.24.3-deepin.1.9
 _ZN4KWin10RenderLoopD0Ev@Base 4:5.24.3-deepin.1.9
 _ZN4KWin10RenderLoopD1Ev@Base 4:5.24.3-deepin.1.9
 _ZN4KWin10RenderLoopD2Ev@Base 4:5.24.3-deepin.1.9
 _ZN4KWin10ShadowItem11qt_metacallEN11QMetaObject4CallEiPPv@Base 4:5.24.3-deepin.1.9
 _ZN4KWin10ShadowItem11qt_metacastEPKc@Base 4:5.24.3-deepin.1.9
 _ZN4KWin10ShadowItem14updateGeometryEv@Base 4:5.24.3-deepin.1.9
 _ZN4KWin10ShadowItem16staticMetaObjectE@Base 4:5.24.3-deepin.1.9
 _ZN4KWin10ShadowItem18handleWindowClosedEPNS_8ToplevelEPNS_7DeletedE@Base 4:5.24.3-deepin.1.9
 _ZN4KWin10ShadowItem20handleTextureChangedEv@Base 4:5.24.3-deepin.1.9
 _ZN4KWin10ShadowItemC1EPNS_6ShadowEPNS_8ToplevelEPNS_4ItemE@Base 4:5.24.3-deepin.1.9
 _ZN4KWin10ShadowItemC2EPNS_6ShadowEPNS_8ToplevelEPNS_4ItemE@Base 4:5.24.3-deepin.1.9
 _ZN4KWin10ShadowItemD0Ev@Base 4:5.24.3-deepin.1.9
 _ZN4KWin10ShadowItemD1Ev@Base 4:5.24.3-deepin.1.9
 _ZN4KWin10ShadowItemD2Ev@Base 4:5.24.3-deepin.1.9
 _ZN4KWin10UdevDevice11hasPropertyEPKcS2_@Base 4:5.24.3-deepin.1.9
 _ZN4KWin10UdevDevice8propertyEPKc@Base 4:5.24.3-deepin.1.9
 _ZN4KWin10UdevDeviceC1EP11udev_device@Base 4:5.24.3-deepin.1.9
 _ZN4KWin10UdevDeviceC2EP11udev_device@Base 4:5.24.3-deepin.1.9
 _ZN4KWin10UdevDeviceD1Ev@Base 4:5.24.3-deepin.1.9
 _ZN4KWin10UdevDeviceD2Ev@Base 4:5.24.3-deepin.1.9
 _ZN4KWin10WindowItem11qt_metacallEN11QMetaObject4CallEiPPv@Base 4:5.24.3-deepin.1.9
 _ZN4KWin10WindowItem11qt_metacastEPKc@Base 4:5.24.3-deepin.1.9
 _ZN4KWin10WindowItem16staticMetaObjectE@Base 4:5.24.3-deepin.1.9
 _ZN4KWin10WindowItem16updateShadowItemEv@Base 4:5.24.3-deepin.1.9
 _ZN4KWin10WindowItem17updateSurfaceItemEPNS_11SurfaceItemE@Base 4:5.24.3-deepin.1.9
 _ZN4KWin10WindowItem18handleWindowClosedEPNS_8ToplevelEPNS_7DeletedE@Base 4:5.24.3-deepin.1.9
 _ZN4KWin10WindowItem20updateDecorationItemEv@Base 4:5.24.3-deepin.1.9
 _ZN4KWin10WindowItem21updateSurfacePositionEv@Base 4:5.24.3-deepin.1.9
 _ZN4KWin10WindowItem23updateSurfaceVisibilityEv@Base 4:5.24.3-deepin.1.9
 _ZN4KWin10WindowItemC1EPNS_8ToplevelEPNS_4ItemE@Base 4:5.24.3-deepin.1.9
 _ZN4KWin10WindowItemC2EPNS_8ToplevelEPNS_4ItemE@Base 4:5.24.3-deepin.1.9
 _ZN4KWin10connectionEv@Base 4:5.24.3-deepin.1.9
 _ZN4KWin10rootWindowEv@Base 4:5.24.3-deepin.1.9
 _ZN4KWin11Application11createAtomsEv@Base 4:5.24.3-deepin.1.9
 _ZN4KWin11Application11createInputEv@Base 4:5.24.3-deepin.1.9
 _ZN4KWin11Application11qt_metacallEN11QMetaObject4CallEiPPv@Base 4:5.24.3-deepin.1.9
 _ZN4KWin11Application11qt_metacastEPKc@Base 4:5.24.3-deepin.1.9
 _ZN4KWin11Application11setupMallocEv@Base 4:5.24.3-deepin.1.9
 _ZN4KWin11Application12destroyAtomsEv@Base 4:5.24.3-deepin.1.9
 _ZN4KWin11Application12destroyInputEv@Base 4:5.24.3-deepin.1.9
 _ZN4KWin11Application12initPlatformERK15KPluginMetaData@Base 4:5.24.3-deepin.1.9
 _ZN4KWin11Application13createOptionsEv@Base 4:5.24.3-deepin.1.9
 _ZN4KWin11Application13createPluginsEv@Base 4:5.24.3-deepin.1.9
 _ZN4KWin11Application13createScreensEv@Base 4:5.24.3-deepin.1.9
 _ZN4KWin11Application13dispatchEventEP19xcb_generic_event_t@Base 4:5.24.3-deepin.1.9
 _ZN4KWin11Application13notifyStartedEv@Base 4:5.24.3-deepin.1.9
 _ZN4KWin11Application13setConfigLockEb@Base 4:5.24.3-deepin.1.9
 _ZN4KWin11Application13setCrashCountEi@Base 4:5.24.3-deepin.1.9
 _ZN4KWin11Application13updateX11TimeEP19xcb_generic_event_t@Base 4:5.24.3-deepin.1.9
 _ZN4KWin11Application14destroyPluginsEv@Base 4:5.24.3-deepin.1.9
 _ZN4KWin11Application14isX11MultiHeadEv@Base 4:5.24.3-deepin.1.9
 _ZN4KWin11Application14screensCreatedEv@Base 4:5.24.3-deepin.1.9
 _ZN4KWin11Application15createAboutDataEv@Base 4:5.24.3-deepin.1.9
 _ZN4KWin11Application15createWorkspaceEv@Base 4:5.24.3-deepin.1.9
 _ZN4KWin11Application15destroyPlatformEv@Base 4:5.24.3-deepin.1.9
 _ZN4KWin11Application15platformCreatedEv@Base 4:5.24.3-deepin.1.9
 _ZN4KWin11Application15setX11MultiHeadEb@Base 4:5.24.3-deepin.1.9
 _ZN4KWin11Application15setupTranslatorEv@Base 4:5.24.3-deepin.1.9
 _ZN4KWin11Application15x11ScreenNumberEv@Base 4:5.24.3-deepin.1.9
 _ZN4KWin11Application16destroyWorkspaceEv@Base 4:5.24.3-deepin.1.9
 _ZN4KWin11Application16setOperationModeENS0_13OperationModeE@Base 4:5.24.3-deepin.1.9
 _ZN4KWin11Application16setupCommandLineEP18QCommandLineParser@Base 4:5.24.3-deepin.1.9
 _ZN4KWin11Application16staticMetaObjectE@Base 4:5.24.3-deepin.1.9
 _ZN4KWin11Application16workspaceCreatedEv@Base 4:5.24.3-deepin.1.9
 _ZN4KWin11Application17createInputMethodEv@Base 4:5.24.3-deepin.1.9
 _ZN4KWin11Application17destroyCompositorEv@Base 4:5.24.3-deepin.1.9
 _ZN4KWin11Application17resetCrashesCountEv@Base 4:5.24.3-deepin.1.9
 _ZN4KWin11Application18createColorManagerEv@Base 4:5.24.3-deepin.1.9
 _ZN4KWin11Application18destroyInputMethodEv@Base 4:5.24.3-deepin.1.9
 _ZN4KWin11Application18processCommandLineEP18QCommandLineParser@Base 4:5.24.3-deepin.1.9
 _ZN4KWin11Application18setX11ScreenNumberEi@Base 4:5.24.3-deepin.1.9
 _ZN4KWin11Application19destroyColorManagerEv@Base 4:5.24.3-deepin.1.9
 _ZN4KWin11Application19registerEventFilterEPNS_14X11EventFilterE@Base 4:5.24.3-deepin.1.9
 _ZN4KWin11Application20setupLocalizedStringEv@Base 4:5.24.3-deepin.1.9
 _ZN4KWin11Application20x11ConnectionChangedEv@Base 4:5.24.3-deepin.1.9
 _ZN4KWin11Application21unregisterEventFilterEPNS_14X11EventFilterE@Base 4:5.24.3-deepin.1.9
 _ZN4KWin11Application22virtualTerminalCreatedEv@Base 4:5.24.3-deepin.1.9
 _ZN4KWin11Application26removeNativeX11EventFilterEv@Base 4:5.24.3-deepin.1.9
 _ZN4KWin11Application27installNativeX11EventFilterEv@Base 4:5.24.3-deepin.1.9
 _ZN4KWin11Application31x11ConnectionAboutToBeDestroyedEv@Base 4:5.24.3-deepin.1.9
 _ZN4KWin11Application5startEv@Base 4:5.24.3-deepin.1.9
 _ZN4KWin11Application7crashesE@Base 4:5.24.3-deepin.1.9
 _ZN4KWin11Application7startedEv@Base 4:5.24.3-deepin.1.9
 _ZN4KWin11Application8wasCrashEv@Base 4:5.24.3-deepin.1.9
 _ZN4KWin11ApplicationC1ENS0_13OperationModeERiPPc@Base 4:5.24.3-deepin.1.9
 _ZN4KWin11ApplicationC2ENS0_13OperationModeERiPPc@Base 4:5.24.3-deepin.1.9
 _ZN4KWin11ApplicationD0Ev@Base 4:5.24.3-deepin.1.9
 _ZN4KWin11ApplicationD1Ev@Base 4:5.24.3-deepin.1.9
 _ZN4KWin11ApplicationD2Ev@Base 4:5.24.3-deepin.1.9
 _ZN4KWin11ColorDevice10setProfileERK7QString@Base 4:5.24.3-deepin.1.9
 _ZN4KWin11ColorDevice11qt_metacallEN11QMetaObject4CallEiPPv@Base 4:5.24.3-deepin.1.9
 _ZN4KWin11ColorDevice11qt_metacastEPKc@Base 4:5.24.3-deepin.1.9
 _ZN4KWin11ColorDevice13setBrightnessEj@Base 4:5.24.3-deepin.1.9
 _ZN4KWin11ColorDevice14profileChangedEv@Base 4:5.24.3-deepin.1.9
 _ZN4KWin11ColorDevice14scheduleUpdateEv@Base 4:5.24.3-deepin.1.9
 _ZN4KWin11ColorDevice14setTemperatureEj@Base 4:5.24.3-deepin.1.9
 _ZN4KWin11ColorDevice16staticMetaObjectE@Base 4:5.24.3-deepin.1.9
 _ZN4KWin11ColorDevice17brightnessChangedEv@Base 4:5.24.3-deepin.1.9
 _ZN4KWin11ColorDevice18temperatureChangedEv@Base 4:5.24.3-deepin.1.9
 _ZN4KWin11ColorDevice6updateEv@Base 4:5.24.3-deepin.1.9
 _ZN4KWin11ColorDeviceC1EPNS_14AbstractOutputEP7QObject@Base 4:5.24.3-deepin.1.9
 _ZN4KWin11ColorDeviceC2EPNS_14AbstractOutputEP7QObject@Base 4:5.24.3-deepin.1.9
 _ZN4KWin11ColorDeviceD0Ev@Base 4:5.24.3-deepin.1.9
 _ZN4KWin11ColorDeviceD1Ev@Base 4:5.24.3-deepin.1.9
 _ZN4KWin11ColorDeviceD2Ev@Base 4:5.24.3-deepin.1.9
 _ZN4KWin11InputDevice10keyChangedEjNS_16InputRedirection16KeyboardKeyStateEjPS0_@Base 4:5.24.3-deepin.1.9
 _ZN4KWin11InputDevice10touchFrameEPS0_@Base 4:5.24.3-deepin.1.9
 _ZN4KWin11InputDevice11qt_metacallEN11QMetaObject4CallEiPPv@Base 4:5.24.3-deepin.1.9
 _ZN4KWin11InputDevice11qt_metacastEPKc@Base 4:5.24.3-deepin.1.9
 _ZN4KWin11InputDevice11touchMotionEiRK7QPointFjPS0_@Base 4:5.24.3-deepin.1.9
 _ZN4KWin11InputDevice13pointerMotionERK6QSizeFS3_jyPS0_@Base 4:5.24.3-deepin.1.9
 _ZN4KWin11InputDevice13touchCanceledEPS0_@Base 4:5.24.3-deepin.1.9
 _ZN4KWin11InputDevice14holdGestureEndEjPS0_@Base 4:5.24.3-deepin.1.9
 _ZN4KWin11InputDevice15pinchGestureEndEjPS0_@Base 4:5.24.3-deepin.1.9
 _ZN4KWin11InputDevice15swipeGestureEndEjPS0_@Base 4:5.24.3-deepin.1.9
 _ZN4KWin11InputDevice15switchToggledOnEjyPS0_@Base 4:5.24.3-deepin.1.9
 _ZN4KWin11InputDevice15tabletToolEventENS_16InputRedirection15TabletEventTypeERK7QPointFdiidbbRKNS_12TabletToolIdEj@Base 4:5.24.3-deepin.1.9
 _ZN4KWin11InputDevice16holdGestureBeginEijPS0_@Base 4:5.24.3-deepin.1.9
 _ZN4KWin11InputDevice16staticMetaObjectE@Base 4:5.24.3-deepin.1.9
 _ZN4KWin11InputDevice16switchToggledOffEjyPS0_@Base 4:5.24.3-deepin.1.9
 _ZN4KWin11InputDevice17pinchGestureBeginEijPS0_@Base 4:5.24.3-deepin.1.9
 _ZN4KWin11InputDevice17swipeGestureBeginEijPS0_@Base 4:5.24.3-deepin.1.9
 _ZN4KWin11InputDevice18pinchGestureUpdateEddRK6QSizeFjPS0_@Base 4:5.24.3-deepin.1.9
 _ZN4KWin11InputDevice18pointerAxisChangedENS_16InputRedirection11PointerAxisEdiNS1_17PointerAxisSourceEjPS0_@Base 4:5.24.3-deepin.1.9
 _ZN4KWin11InputDevice18swipeGestureUpdateERK6QSizeFjPS0_@Base 4:5.24.3-deepin.1.9
 _ZN4KWin11InputDevice18tabletPadRingEventEiibRKNS_11TabletPadIdE@Base 4:5.24.3-deepin.1.9
 _ZN4KWin11InputDevice19tabletPadStripEventEiibRKNS_11TabletPadIdE@Base 4:5.24.3-deepin.1.9
 _ZN4KWin11InputDevice20holdGestureCancelledEjPS0_@Base 4:5.24.3-deepin.1.9
 _ZN4KWin11InputDevice20pointerButtonChangedEjNS_16InputRedirection18PointerButtonStateEjPS0_@Base 4:5.24.3-deepin.1.9
 _ZN4KWin11InputDevice20tabletPadButtonEventEjbRKNS_11TabletPadIdE@Base 4:5.24.3-deepin.1.9
 _ZN4KWin11InputDevice21pinchGestureCancelledEjPS0_@Base 4:5.24.3-deepin.1.9
 _ZN4KWin11InputDevice21pointerMotionAbsoluteERK7QPointFjPS0_@Base 4:5.24.3-deepin.1.9
 _ZN4KWin11InputDevice21swipeGestureCancelledEjPS0_@Base 4:5.24.3-deepin.1.9
 _ZN4KWin11InputDevice21tabletToolButtonEventEjbRKNS_12TabletToolIdE@Base 4:5.24.3-deepin.1.9
 _ZN4KWin11InputDevice7touchUpEijPS0_@Base 4:5.24.3-deepin.1.9
 _ZN4KWin11InputDevice9touchDownEiRK7QPointFjPS0_@Base 4:5.24.3-deepin.1.9
 _ZN4KWin11InputDeviceC1EP7QObject@Base 4:5.24.3-deepin.1.9
 _ZN4KWin11InputDeviceC2EP7QObject@Base 4:5.24.3-deepin.1.9
 _ZN4KWin11InputMethod10setEnabledEb@Base 4:5.24.3-deepin.1.9
 _ZN4KWin11InputMethod11qt_metacallEN11QMetaObject4CallEiPPv@Base 4:5.24.3-deepin.1.9
 _ZN4KWin11InputMethod11qt_metacastEPKc@Base 4:5.24.3-deepin.1.9
 _ZN4KWin11InputMethod11setLanguageEjRK7QString@Base 4:5.24.3-deepin.1.9
 _ZN4KWin11InputMethod12commitStringEiRK7QString@Base 4:5.24.3-deepin.1.9
 _ZN4KWin11InputMethod12keyboardGrabEv@Base 4:5.24.3-deepin.1.9
 _ZN4KWin11InputMethod13activeChangedEb@Base 4:5.24.3-deepin.1.9
 _ZN4KWin11InputMethod14enabledChangedEb@Base 4:5.24.3-deepin.1.9
 _ZN4KWin11InputMethod14keysymReceivedEjjjbj@Base 4:5.24.3-deepin.1.9
 _ZN4KWin11InputMethod14stateCommittedEj@Base 4:5.24.3-deepin.1.9
 _ZN4KWin11InputMethod14visibleChangedEv@Base 4:5.24.3-deepin.1.9
 _ZN4KWin11InputMethod15stopInputMethodEv@Base 4:5.24.3-deepin.1.9
 _ZN4KWin11InputMethod16availableChangedEv@Base 4:5.24.3-deepin.1.9
 _ZN4KWin11InputMethod16forwardModifiersENS0_21ForwardModifiersForceE@Base 4:5.24.3-deepin.1.9
 _ZN4KWin11InputMethod16setPreeditCursorEi@Base 4:5.24.3-deepin.1.9
 _ZN4KWin11InputMethod16setPreeditStringEjRK7QStringS3_@Base 4:5.24.3-deepin.1.9
 _ZN4KWin11InputMethod16setTextDirectionEjN2Qt15LayoutDirectionE@Base 4:5.24.3-deepin.1.9
 _ZN4KWin11InputMethod16setTrackedClientEPNS_14AbstractClientE@Base 4:5.24.3-deepin.1.9
 _ZN4KWin11InputMethod16startInputMethodEv@Base 4:5.24.3-deepin.1.9
 _ZN4KWin11InputMethod16staticMetaObjectE@Base 4:5.24.3-deepin.1.9
 _ZN4KWin11InputMethod17setCursorPositionEii@Base 4:5.24.3-deepin.1.9
 _ZN4KWin11InputMethod17setPreeditStylingEjjj@Base 4:5.24.3-deepin.1.9
 _ZN4KWin11InputMethod18contentTypeChangedEv@Base 4:5.24.3-deepin.1.9
 _ZN4KWin11InputMethod18updateModifiersMapERK10QByteArray@Base 4:5.24.3-deepin.1.9
 _ZN4KWin11InputMethod19installKeyboardGrabEPN14KWaylandServer17InputMethodGrabV1E@Base 4:5.24.3-deepin.1.9
 _ZN4KWin11InputMethod19resetPendingPreeditEv@Base 4:5.24.3-deepin.1.9
 _ZN4KWin11InputMethod21deleteSurroundingTextEij@Base 4:5.24.3-deepin.1.9
 _ZN4KWin11InputMethod21setInputMethodCommandERK7QString@Base 4:5.24.3-deepin.1.9
 _ZN4KWin11InputMethod21updateInputPanelStateEv@Base 4:5.24.3-deepin.1.9
 _ZN4KWin11InputMethod22surroundingTextChangedEv@Base 4:5.24.3-deepin.1.9
 _ZN4KWin11InputMethod23adoptInputMethodContextEv@Base 4:5.24.3-deepin.1.9
 _ZN4KWin11InputMethod27handleFocusedSurfaceChangedEv@Base 4:5.24.3-deepin.1.9
 _ZN4KWin11InputMethod32textInputInterfaceV2StateUpdatedEjN14KWaylandServer20TextInputV2Interface12UpdateReasonE@Base 4:5.24.3-deepin.1.9
 _ZN4KWin11InputMethod34textInputInterfaceV2EnabledChangedEv@Base 4:5.24.3-deepin.1.9
 _ZN4KWin11InputMethod34textInputInterfaceV3EnabledChangedEv@Base 4:5.24.3-deepin.1.9
 _ZN4KWin11InputMethod3keyEjjjb@Base 4:5.24.3-deepin.1.9
 _ZN4KWin11InputMethod4hideEv@Base 4:5.24.3-deepin.1.9
 _ZN4KWin11InputMethod4initEv@Base 4:5.24.3-deepin.1.9
 _ZN4KWin11InputMethod4showEv@Base 4:5.24.3-deepin.1.9
 _ZN4KWin11InputMethod6createEP7QObject@Base 4:5.24.3-deepin.1.9
 _ZN4KWin11InputMethod6s_selfE@Base 4:5.24.3-deepin.1.9
 _ZN4KWin11InputMethod8setPanelEPNS_18InputPanelV1ClientE@Base 4:5.24.3-deepin.1.9
 _ZN4KWin11InputMethod9modifiersEjjjjj@Base 4:5.24.3-deepin.1.9
 _ZN4KWin11InputMethod9setActiveEb@Base 4:5.24.3-deepin.1.9
 _ZN4KWin11InputMethodC1EP7QObject@Base 4:5.24.3-deepin.1.9
 _ZN4KWin11InputMethodC2EP7QObject@Base 4:5.24.3-deepin.1.9
 _ZN4KWin11InputMethodD0Ev@Base 4:5.24.3-deepin.1.9
 _ZN4KWin11InputMethodD1Ev@Base 4:5.24.3-deepin.1.9
 _ZN4KWin11InputMethodD2Ev@Base 4:5.24.3-deepin.1.9
 _ZN4KWin11SceneOpenGL11EffectFrame13crossFadeIconEv@Base 4:5.24.3-deepin.1.9
 _ZN4KWin11SceneOpenGL11EffectFrame13crossFadeTextEv@Base 4:5.24.3-deepin.1.9
 _ZN4KWin11SceneOpenGL11EffectFrame13freeIconFrameEv@Base 4:5.24.3-deepin.1.9
 _ZN4KWin11SceneOpenGL11EffectFrame13freeSelectionEv@Base 4:5.24.3-deepin.1.9
 _ZN4KWin11SceneOpenGL11EffectFrame13freeTextFrameEv@Base 4:5.24.3-deepin.1.9
 _ZN4KWin11SceneOpenGL11EffectFrame13updateTextureEv@Base 4:5.24.3-deepin.1.9
 _ZN4KWin11SceneOpenGL11EffectFrame16m_unstyledPixmapE@Base 4:5.24.3-deepin.1.9
 _ZN4KWin11SceneOpenGL11EffectFrame17m_unstyledTextureE@Base 4:5.24.3-deepin.1.9
 _ZN4KWin11SceneOpenGL11EffectFrame17updateTextTextureEv@Base 4:5.24.3-deepin.1.9
 _ZN4KWin11SceneOpenGL11EffectFrame21updateUnstyledTextureEv@Base 4:5.24.3-deepin.1.9
 _ZN4KWin11SceneOpenGL11EffectFrame4freeEv@Base 4:5.24.3-deepin.1.9
 _ZN4KWin11SceneOpenGL11EffectFrame6renderERK7QRegiondd@Base 4:5.24.3-deepin.1.9
 _ZN4KWin11SceneOpenGL11EffectFrame7cleanupEv@Base 4:5.24.3-deepin.1.9
 _ZN4KWin11SceneOpenGL11EffectFrameC1EPNS_15EffectFrameImplEPS0_@Base 4:5.24.3-deepin.1.9
 _ZN4KWin11SceneOpenGL11EffectFrameC2EPNS_15EffectFrameImplEPS0_@Base 4:5.24.3-deepin.1.9
 _ZN4KWin11SceneOpenGL11EffectFrameD0Ev@Base 4:5.24.3-deepin.1.9
 _ZN4KWin11SceneOpenGL11EffectFrameD1Ev@Base 4:5.24.3-deepin.1.9
 _ZN4KWin11SceneOpenGL11EffectFrameD2Ev@Base 4:5.24.3-deepin.1.9
 _ZN4KWin11SceneOpenGL11createSceneEPNS_13OpenGLBackendEP7QObject@Base 4:5.24.3-deepin.1.9
 _ZN4KWin11SceneOpenGL11paintCursorEPNS_14AbstractOutputERK7QRegion@Base 4:5.24.3-deepin.1.9
 _ZN4KWin11SceneOpenGL11qt_metacallEN11QMetaObject4CallEiPPv@Base 4:5.24.3-deepin.1.9
 _ZN4KWin11SceneOpenGL11qt_metacastEPKc@Base 4:5.24.3-deepin.1.9
 _ZN4KWin11SceneOpenGL12createShadowEPNS_8ToplevelE@Base 4:5.24.3-deepin.1.9
 _ZN4KWin11SceneOpenGL12createWindowEPNS_8ToplevelE@Base 4:5.24.3-deepin.1.9
 _ZN4KWin11SceneOpenGL12paintDesktopEiiRK7QRegionRNS_15ScreenPaintDataE@Base 4:5.24.3-deepin.1.9
 _ZN4KWin11SceneOpenGL15finalDrawWindowEPNS_16EffectWindowImplEiRK7QRegionRNS_15WindowPaintDataE@Base 4:5.24.3-deepin.1.9
 _ZN4KWin11SceneOpenGL15paintBackgroundERK7QRegion@Base 4:5.24.3-deepin.1.9
 _ZN4KWin11SceneOpenGL16staticMetaObjectE@Base 4:5.24.3-deepin.1.9
 _ZN4KWin11SceneOpenGL17createEffectFrameEPNS_15EffectFrameImplE@Base 4:5.24.3-deepin.1.9
 _ZN4KWin11SceneOpenGL17doPaintBackgroundERK7QVectorIfE@Base 4:5.24.3-deepin.1.9
 _ZN4KWin11SceneOpenGL17extendPaintRegionER7QRegionb@Base 4:5.24.3-deepin.1.9
 _ZN4KWin11SceneOpenGL17paintSimpleScreenEiRK7QRegion@Base 4:5.24.3-deepin.1.9
 _ZN4KWin11SceneOpenGL18paintGenericScreenEiRKNS_15ScreenPaintDataE@Base 4:5.24.3-deepin.1.9
 _ZN4KWin11SceneOpenGL18performPaintWindowEPNS_16EffectWindowImplEiRK7QRegionRNS_15WindowPaintDataE@Base 4:5.24.3-deepin.1.9
 _ZN4KWin11SceneOpenGL20aboutToStartPaintingEPNS_14AbstractOutputERK7QRegion@Base 4:5.24.3-deepin.1.9
 _ZN4KWin11SceneOpenGL22updateProjectionMatrixERK5QRect@Base 4:5.24.3-deepin.1.9
 _ZN4KWin11SceneOpenGL23createSurfaceTextureX11EPNS_16SurfacePixmapX11E@Base 4:5.24.3-deepin.1.9
 _ZN4KWin11SceneOpenGL23paintOffscreenQuickViewEPNS_18OffscreenQuickViewE@Base 4:5.24.3-deepin.1.9
 _ZN4KWin11SceneOpenGL24createDecorationRendererEPNS_10Decoration19DecoratedClientImplE@Base 4:5.24.3-deepin.1.9
 _ZN4KWin11SceneOpenGL24doneOpenGLContextCurrentEv@Base 4:5.24.3-deepin.1.9
 _ZN4KWin11SceneOpenGL24makeOpenGLContextCurrentEv@Base 4:5.24.3-deepin.1.9
 _ZN4KWin11SceneOpenGL27createSurfaceTextureWaylandEPNS_20SurfacePixmapWaylandE@Base 4:5.24.3-deepin.1.9
 _ZN4KWin11SceneOpenGL28createSurfaceTextureInternalEPNS_21SurfacePixmapInternalE@Base 4:5.24.3-deepin.1.9
 _ZN4KWin11SceneOpenGL5paintEPNS_14AbstractOutputERK7QRegionRK5QListIPNS_8ToplevelEEPNS_10RenderLoopE@Base 4:5.24.3-deepin.1.9
 _ZN4KWin11SceneOpenGL9supportedEPNS_13OpenGLBackendE@Base 4:5.24.3-deepin.1.9
 _ZN4KWin11SceneOpenGLC1EPNS_13OpenGLBackendEP7QObject@Base 4:5.24.3-deepin.1.9
 _ZN4KWin11SceneOpenGLC2EPNS_13OpenGLBackendEP7QObject@Base 4:5.24.3-deepin.1.9
 _ZN4KWin11SceneOpenGLD0Ev@Base 4:5.24.3-deepin.1.9
 _ZN4KWin11SceneOpenGLD1Ev@Base 4:5.24.3-deepin.1.9
 _ZN4KWin11SceneOpenGLD2Ev@Base 4:5.24.3-deepin.1.9
 _ZN4KWin11ScreenEdges10createEdgeENS_14ElectricBorderEiiiib@Base 4:5.24.3-deepin.1.9
 _ZN4KWin11ScreenEdges11approachingENS_14ElectricBorderEdRK5QRect@Base 4:5.24.3-deepin.1.9
 _ZN4KWin11ScreenEdges11ensureOnTopEv@Base 4:5.24.3-deepin.1.9
 _ZN4KWin11ScreenEdges11qt_metacallEN11QMetaObject4CallEiPPv@Base 4:5.24.3-deepin.1.9
 _ZN4KWin11ScreenEdges11qt_metacastEPKc@Base 4:5.24.3-deepin.1.9
 _ZN4KWin11ScreenEdges11reconfigureEv@Base 4:5.24.3-deepin.1.9
 _ZN4KWin11ScreenEdges12reserveTouchENS_14ElectricBorderEP7QAction@Base 4:5.24.3-deepin.1.9
 _ZN4KWin11ScreenEdges12updateLayoutEv@Base 4:5.24.3-deepin.1.9
 _ZN4KWin11ScreenEdges13checkBlockingEv@Base 4:5.24.3-deepin.1.9
 _ZN4KWin11ScreenEdges13recreateEdgesEv@Base 4:5.24.3-deepin.1.9
 _ZN4KWin11ScreenEdges14unreserveTouchENS_14ElectricBorderEP7QAction@Base 4:5.24.3-deepin.1.9
 _ZN4KWin11ScreenEdges15handleDndNotifyEjRK6QPoint@Base 4:5.24.3-deepin.1.9
 _ZN4KWin11ScreenEdges16staticMetaObjectE@Base 4:5.24.3-deepin.1.9
 _ZN4KWin11ScreenEdges18createVerticalEdgeENS_14ElectricBorderERK5QRectS4_@Base 4:5.24.3-deepin.1.9
 _ZN4KWin11ScreenEdges18handleEnterNotifiyEjRK6QPointRK9QDateTime@Base 4:5.24.3-deepin.1.9
 _ZN4KWin11ScreenEdges18setActionForBorderENS_14ElectricBorderEPNS_20ElectricBorderActionES2_@Base 4:5.24.3-deepin.1.9
 _ZN4KWin11ScreenEdges19createEdgeForClientEPNS_14AbstractClientENS_14ElectricBorderE@Base 4:5.24.3-deepin.1.9
 _ZN4KWin11ScreenEdges19deleteEdgeForClientEPNS_14AbstractClientE@Base 4:5.24.3-deepin.1.9
 _ZN4KWin11ScreenEdges20createHorizontalEdgeENS_14ElectricBorderERK5QRectS4_@Base 4:5.24.3-deepin.1.9
 _ZN4KWin11ScreenEdges23reserveDesktopSwitchingEb6QFlagsIN2Qt11OrientationEE@Base 4:5.24.3-deepin.1.9
 _ZN4KWin11ScreenEdges23setActionForTouchBorderENS_14ElectricBorderENS_20ElectricBorderActionE@Base 4:5.24.3-deepin.1.9
 _ZN4KWin11ScreenEdges4initEv@Base 4:5.24.3-deepin.1.9
 _ZN4KWin11ScreenEdges5checkERK6QPointRK9QDateTimeb@Base 4:5.24.3-deepin.1.9
 _ZN4KWin11ScreenEdges6createEP7QObject@Base 4:5.24.3-deepin.1.9
 _ZN4KWin11ScreenEdges6s_selfE@Base 4:5.24.3-deepin.1.9
 _ZN4KWin11ScreenEdges7reserveENS_14ElectricBorderEP7QObjectPKc@Base 4:5.24.3-deepin.1.9
 _ZN4KWin11ScreenEdges7reserveEPNS_14AbstractClientENS_14ElectricBorderE@Base 4:5.24.3-deepin.1.9
 _ZN4KWin11ScreenEdges9isEnteredEP11QMouseEvent@Base 4:5.24.3-deepin.1.9
 _ZN4KWin11ScreenEdges9unreserveENS_14ElectricBorderEP7QObject@Base 4:5.24.3-deepin.1.9
 _ZN4KWin11ScreenEdgesC1EP7QObject@Base 4:5.24.3-deepin.1.9
 _ZN4KWin11ScreenEdgesC2EP7QObject@Base 4:5.24.3-deepin.1.9
 _ZN4KWin11ScreenEdgesD0Ev@Base 4:5.24.3-deepin.1.9
 _ZN4KWin11ScreenEdgesD1Ev@Base 4:5.24.3-deepin.1.9
 _ZN4KWin11ScreenEdgesD2Ev@Base 4:5.24.3-deepin.1.9
 _ZN4KWin11SurfaceItem10preprocessEv@Base 4:5.24.3-deepin.1.9
 _ZN4KWin11SurfaceItem11qt_metacallEN11QMetaObject4CallEiPPv@Base 4:5.24.3-deepin.1.9
 _ZN4KWin11SurfaceItem11qt_metacastEPKc@Base 4:5.24.3-deepin.1.9
 _ZN4KWin11SurfaceItem11resetDamageEv@Base 4:5.24.3-deepin.1.9
 _ZN4KWin11SurfaceItem12updatePixmapEv@Base 4:5.24.3-deepin.1.9
 _ZN4KWin11SurfaceItem13discardPixmapEv@Base 4:5.24.3-deepin.1.9
 _ZN4KWin11SurfaceItem16staticMetaObjectE@Base 4:5.24.3-deepin.1.9
 _ZN4KWin11SurfaceItem18handleWindowClosedEPNS_8ToplevelEPNS_7DeletedE@Base 4:5.24.3-deepin.1.9
 _ZN4KWin11SurfaceItem23referencePreviousPixmapEv@Base 4:5.24.3-deepin.1.9
 _ZN4KWin11SurfaceItem24setSurfaceToBufferMatrixERK10QMatrix4x4@Base 4:5.24.3-deepin.1.9
 _ZN4KWin11SurfaceItem25unreferencePreviousPixmapEv@Base 4:5.24.3-deepin.1.9
 _ZN4KWin11SurfaceItem9addDamageERK7QRegion@Base 4:5.24.3-deepin.1.9
 _ZN4KWin11SurfaceItemC1EPNS_8ToplevelEPNS_4ItemE@Base 4:5.24.3-deepin.1.9
 _ZN4KWin11SurfaceItemC2EPNS_8ToplevelEPNS_4ItemE@Base 4:5.24.3-deepin.1.9
 _ZN4KWin11UdevMonitor22filterSubsystemDevTypeEPKcS2_@Base 4:5.24.3-deepin.1.9
 _ZN4KWin11UdevMonitor6enableEv@Base 4:5.24.3-deepin.1.9
 _ZN4KWin11UdevMonitor9getDeviceEv@Base 4:5.24.3-deepin.1.9
 _ZN4KWin11UdevMonitorC1EPNS_4UdevE@Base 4:5.24.3-deepin.1.9
 _ZN4KWin11UdevMonitorC2EPNS_4UdevE@Base 4:5.24.3-deepin.1.9
 _ZN4KWin11UdevMonitorD1Ev@Base 4:5.24.3-deepin.1.9
 _ZN4KWin11UdevMonitorD2Ev@Base 4:5.24.3-deepin.1.9
 _ZN4KWin11grabXServerEv@Base 4:5.24.3-deepin.1.9
 _ZN4KWin11popupOffsetERK5QRect6QFlagsIN2Qt4EdgeEES6_5QSize@Base 4:5.24.3-deepin.1.9
 _ZN4KWin11updateXTimeEv@Base 4:5.24.3-deepin.1.9
 _ZN4KWin12ColorManager11deviceAddedEPNS_11ColorDeviceE@Base 4:5.24.3-deepin.1.9
 _ZN4KWin12ColorManager11qt_metacallEN11QMetaObject4CallEiPPv@Base 4:5.24.3-deepin.1.9
 _ZN4KWin12ColorManager11qt_metacastEPKc@Base 4:5.24.3-deepin.1.9
 _ZN4KWin12ColorManager13deviceRemovedEPNS_11ColorDeviceE@Base 4:5.24.3-deepin.1.9
 _ZN4KWin12ColorManager16staticMetaObjectE@Base 4:5.24.3-deepin.1.9
 _ZN4KWin12ColorManager19handleOutputEnabledEPNS_14AbstractOutputE@Base 4:5.24.3-deepin.1.9
 _ZN4KWin12ColorManager20handleOutputDisabledEPNS_14AbstractOutputE@Base 4:5.24.3-deepin.1.9
 _ZN4KWin12ColorManager26handleSessionActiveChangedEb@Base 4:5.24.3-deepin.1.9
 _ZN4KWin12ColorManager6createEP7QObject@Base 4:5.24.3-deepin.1.9
 _ZN4KWin12ColorManager6s_selfE@Base 4:5.24.3-deepin.1.9
 _ZN4KWin12ColorManagerC1EP7QObject@Base 4:5.24.3-deepin.1.9
 _ZN4KWin12ColorManagerC2EP7QObject@Base 4:5.24.3-deepin.1.9
 _ZN4KWin12ColorManagerD0Ev@Base 4:5.24.3-deepin.1.9
 _ZN4KWin12ColorManagerD1Ev@Base 4:5.24.3-deepin.1.9
 _ZN4KWin12ColorManagerD2Ev@Base 4:5.24.3-deepin.1.9
 _ZN4KWin12DebugConsole11qt_metacallEN11QMetaObject4CallEiPPv@Base 4:5.24.3-deepin.1.9
 _ZN4KWin12DebugConsole11qt_metacastEPKc@Base 4:5.24.3-deepin.1.9
 _ZN4KWin12DebugConsole16staticMetaObjectE@Base 4:5.24.3-deepin.1.9
 _ZN4KWin12DebugConsole17updateKeyboardTabEv@Base 4:5.24.3-deepin.1.9
 _ZN4KWin12DebugConsole9initGLTabEv@Base 4:5.24.3-deepin.1.9
 _ZN4KWin12DebugConsole9showEventEP10QShowEvent@Base 4:5.24.3-deepin.1.9
 _ZN4KWin12DebugConsoleC1Ev@Base 4:5.24.3-deepin.1.9
 _ZN4KWin12DebugConsoleC2Ev@Base 4:5.24.3-deepin.1.9
 _ZN4KWin12DebugConsoleD0Ev@Base 4:5.24.3-deepin.1.9
 _ZN4KWin12DebugConsoleD1Ev@Base 4:5.24.3-deepin.1.9
 _ZN4KWin12DebugConsoleD2Ev@Base 4:5.24.3-deepin.1.9
 _ZN4KWin12EffectLoader10loadEffectERK7QString@Base 4:5.24.3-deepin.1.9
 _ZN4KWin12EffectLoader11qt_metacallEN11QMetaObject4CallEiPPv@Base 4:5.24.3-deepin.1.9
 _ZN4KWin12EffectLoader11qt_metacastEPKc@Base 4:5.24.3-deepin.1.9
 _ZN4KWin12EffectLoader15queryAndLoadAllEv@Base 4:5.24.3-deepin.1.9
 _ZN4KWin12EffectLoader16staticMetaObjectE@Base 4:5.24.3-deepin.1.9
 _ZN4KWin12EffectLoader5clearEv@Base 4:5.24.3-deepin.1.9
 _ZN4KWin12EffectLoader9setConfigE28QExplicitlySharedDataPointerI13KSharedConfigE@Base 4:5.24.3-deepin.1.9
 _ZN4KWin12EffectLoaderC1EP7QObject@Base 4:5.24.3-deepin.1.9
 _ZN4KWin12EffectLoaderC2EP7QObject@Base 4:5.24.3-deepin.1.9
 _ZN4KWin12EffectLoaderD0Ev@Base 4:5.24.3-deepin.1.9
 _ZN4KWin12EffectLoaderD1Ev@Base 4:5.24.3-deepin.1.9
 _ZN4KWin12EffectLoaderD2Ev@Base 4:5.24.3-deepin.1.9
 _ZN4KWin12FTraceLogger10setEnabledEb@Base 4:5.24.3-deepin.1.9
 _ZN4KWin12FTraceLogger11qt_metacallEN11QMetaObject4CallEiPPv@Base 4:5.24.3-deepin.1.9
 _ZN4KWin12FTraceLogger11qt_metacastEPKc@Base 4:5.24.3-deepin.1.9
 _ZN4KWin12FTraceLogger14enabledChangedEv@Base 4:5.24.3-deepin.1.9
 _ZN4KWin12FTraceLogger16staticMetaObjectE@Base 4:5.24.3-deepin.1.9
 _ZN4KWin12FTraceLogger4openEv@Base 4:5.24.3-deepin.1.9
 _ZN4KWin12FTraceLogger6createEP7QObject@Base 4:5.24.3-deepin.1.9
 _ZN4KWin12FTraceLogger6s_selfE@Base 4:5.24.3-deepin.1.9
 _ZN4KWin12FTraceLogger8filePathEv@Base 4:5.24.3-deepin.1.9
 _ZN4KWin12FTraceLoggerC1EP7QObject@Base 4:5.24.3-deepin.1.9
 _ZN4KWin12FTraceLoggerC2EP7QObject@Base 4:5.24.3-deepin.1.9
 _ZN4KWin12InputBackend11deviceAddedEPNS_11InputDeviceE@Base 4:5.24.3-deepin.1.9
 _ZN4KWin12InputBackend11qt_metacallEN11QMetaObject4CallEiPPv@Base 4:5.24.3-deepin.1.9
 _ZN4KWin12InputBackend11qt_metacastEPKc@Base 4:5.24.3-deepin.1.9
 _ZN4KWin12InputBackend13deviceRemovedEPNS_11InputDeviceE@Base 4:5.24.3-deepin.1.9
 _ZN4KWin12InputBackend16staticMetaObjectE@Base 4:5.24.3-deepin.1.9
 _ZN4KWin12InputBackend9setConfigE28QExplicitlySharedDataPointerI13KSharedConfigE@Base 4:5.24.3-deepin.1.9
 _ZN4KWin12InputBackendC1EP7QObject@Base 4:5.24.3-deepin.1.9
 _ZN4KWin12InputBackendC2EP7QObject@Base 4:5.24.3-deepin.1.9
 _ZN4KWin12VsyncMonitor11qt_metacallEN11QMetaObject4CallEiPPv@Base 4:5.24.3-deepin.1.9
 _ZN4KWin12VsyncMonitor11qt_metacastEPKc@Base 4:5.24.3-deepin.1.9
 _ZN4KWin12VsyncMonitor13errorOccurredEv@Base 4:5.24.3-deepin.1.9
 _ZN4KWin12VsyncMonitor14vblankOccurredENSt6chrono8durationIlSt5ratioILl1ELl1000000000EEEE@Base 4:5.24.3-deepin.1.9
 _ZN4KWin12VsyncMonitor16staticMetaObjectE@Base 4:5.24.3-deepin.1.9
 _ZN4KWin12VsyncMonitorC1EP7QObject@Base 4:5.24.3-deepin.1.9
 _ZN4KWin12VsyncMonitorC2EP7QObject@Base 4:5.24.3-deepin.1.9
 _ZN4KWin13DmaBufTextureC1EPNS_9GLTextureE@Base 4:5.24.3-deepin.1.9
 _ZN4KWin13DmaBufTextureC2EPNS_9GLTextureE@Base 4:5.24.3-deepin.1.9
 _ZN4KWin13DmaBufTextureD0Ev@Base 4:5.24.3-deepin.1.9
 _ZN4KWin13DmaBufTextureD1Ev@Base 4:5.24.3-deepin.1.9
 _ZN4KWin13DmaBufTextureD2Ev@Base 4:5.24.3-deepin.1.9
 _ZN4KWin13InputEventSpy10wheelEventEPNS_10WheelEventE@Base 4:5.24.3-deepin.1.9
 _ZN4KWin13InputEventSpy11switchEventEPNS_11SwitchEventE@Base 4:5.24.3-deepin.1.9
 _ZN4KWin13InputEventSpy11touchMotionEiRK7QPointFj@Base 4:5.24.3-deepin.1.9
 _ZN4KWin13InputEventSpy12pointerEventEPNS_10MouseEventE@Base 4:5.24.3-deepin.1.9
 _ZN4KWin13InputEventSpy14holdGestureEndEj@Base 4:5.24.3-deepin.1.9
 _ZN4KWin13InputEventSpy15pinchGestureEndEj@Base 4:5.24.3-deepin.1.9
 _ZN4KWin13InputEventSpy15swipeGestureEndEj@Base 4:5.24.3-deepin.1.9
 _ZN4KWin13InputEventSpy15tabletToolEventEPNS_11TabletEventE@Base 4:5.24.3-deepin.1.9
 _ZN4KWin13InputEventSpy16holdGestureBeginEij@Base 4:5.24.3-deepin.1.9
 _ZN4KWin13InputEventSpy17pinchGestureBeginEij@Base 4:5.24.3-deepin.1.9
 _ZN4KWin13InputEventSpy17swipeGestureBeginEij@Base 4:5.24.3-deepin.1.9
 _ZN4KWin13InputEventSpy18pinchGestureUpdateEddRK6QSizeFj@Base 4:5.24.3-deepin.1.9
 _ZN4KWin13InputEventSpy18swipeGestureUpdateERK6QSizeFj@Base 4:5.24.3-deepin.1.9
 _ZN4KWin13InputEventSpy18tabletPadRingEventEiibRKNS_11TabletPadIdE@Base 4:5.24.3-deepin.1.9
 _ZN4KWin13InputEventSpy19tabletPadStripEventEiibRKNS_11TabletPadIdE@Base 4:5.24.3-deepin.1.9
 _ZN4KWin13InputEventSpy20holdGestureCancelledEj@Base 4:5.24.3-deepin.1.9
 _ZN4KWin13InputEventSpy20tabletPadButtonEventEjbRKNS_11TabletPadIdE@Base 4:5.24.3-deepin.1.9
 _ZN4KWin13InputEventSpy21pinchGestureCancelledEj@Base 4:5.24.3-deepin.1.9
 _ZN4KWin13InputEventSpy21swipeGestureCancelledEj@Base 4:5.24.3-deepin.1.9
 _ZN4KWin13InputEventSpy21tabletToolButtonEventEjbRKNS_12TabletToolIdE@Base 4:5.24.3-deepin.1.9
 _ZN4KWin13InputEventSpy7touchUpEij@Base 4:5.24.3-deepin.1.9
 _ZN4KWin13InputEventSpy8keyEventEPNS_8KeyEventE@Base 4:5.24.3-deepin.1.9
 _ZN4KWin13InputEventSpy9touchDownEiRK7QPointFj@Base 4:5.24.3-deepin.1.9
 _ZN4KWin13InputEventSpyC1Ev@Base 4:5.24.3-deepin.1.9
 _ZN4KWin13InputEventSpyC2Ev@Base 4:5.24.3-deepin.1.9
 _ZN4KWin13InputEventSpyD0Ev@Base 4:5.24.3-deepin.1.9
 _ZN4KWin13InputEventSpyD1Ev@Base 4:5.24.3-deepin.1.9
 _ZN4KWin13InputEventSpyD2Ev@Base 4:5.24.3-deepin.1.9
 _ZN4KWin13KXcursorTheme9fromThemeERK7QStringid@Base 4:5.24.3-deepin.1.9
 _ZN4KWin13KXcursorThemeC1ERK4QMapI10QByteArray7QVectorINS_14KXcursorSpriteEEE@Base 4:5.24.3-deepin.1.9
 _ZN4KWin13KXcursorThemeC1ERKS0_@Base 4:5.24.3-deepin.1.9
 _ZN4KWin13KXcursorThemeC1Ev@Base 4:5.24.3-deepin.1.9
 _ZN4KWin13KXcursorThemeC2ERK4QMapI10QByteArray7QVectorINS_14KXcursorSpriteEEE@Base 4:5.24.3-deepin.1.9
 _ZN4KWin13KXcursorThemeC2ERKS0_@Base 4:5.24.3-deepin.1.9
 _ZN4KWin13KXcursorThemeC2Ev@Base 4:5.24.3-deepin.1.9
 _ZN4KWin13KXcursorThemeD1Ev@Base 4:5.24.3-deepin.1.9
 _ZN4KWin13KXcursorThemeD2Ev@Base 4:5.24.3-deepin.1.9
 _ZN4KWin13KXcursorThemeaSERKS0_@Base 4:5.24.3-deepin.1.9
 _ZN4KWin13OpenGLBackend10copyPixelsERK7QRegion@Base 4:5.24.3-deepin.1.9
 _ZN4KWin13OpenGLBackend11qt_metacallEN11QMetaObject4CallEiPPv@Base 4:5.24.3-deepin.1.9
 _ZN4KWin13OpenGLBackend11qt_metacastEPKc@Base 4:5.24.3-deepin.1.9
 _ZN4KWin13OpenGLBackend16staticMetaObjectE@Base 4:5.24.3-deepin.1.9
 _ZN4KWin13OpenGLBackend18checkGraphicsResetEv@Base 4:5.24.3-deepin.1.9
 _ZN4KWin13OpenGLBackend20aboutToStartPaintingEPNS_14AbstractOutputERK7QRegion@Base 4:5.24.3-deepin.1.9
 _ZN4KWin13OpenGLBackend23createSurfaceTextureX11EPNS_16SurfacePixmapX11E@Base 4:5.24.3-deepin.1.9
 _ZN4KWin13OpenGLBackend27createSurfaceTextureWaylandEPNS_20SurfacePixmapWaylandE@Base 4:5.24.3-deepin.1.9
 _ZN4KWin13OpenGLBackend28createSurfaceTextureInternalEPNS_21SurfacePixmapInternalE@Base 4:5.24.3-deepin.1.9
 _ZN4KWin13OpenGLBackend7scanoutEPNS_14AbstractOutputEPNS_11SurfaceItemE@Base 4:5.24.3-deepin.1.9
 _ZN4KWin13OpenGLBackend9setFailedERK7QString@Base 4:5.24.3-deepin.1.9
 _ZN4KWin13OpenGLBackendC1Ev@Base 4:5.24.3-deepin.1.9
 _ZN4KWin13OpenGLBackendC2Ev@Base 4:5.24.3-deepin.1.9
 _ZN4KWin13OpenGLBackendD0Ev@Base 4:5.24.3-deepin.1.9
 _ZN4KWin13OpenGLBackendD1Ev@Base 4:5.24.3-deepin.1.9
 _ZN4KWin13OpenGLBackendD2Ev@Base 4:5.24.3-deepin.1.9
 _ZN4KWin13OutlineVisualC1EPNS_7OutlineE@Base 4:5.24.3-deepin.1.9
 _ZN4KWin13OutlineVisualC2EPNS_7OutlineE@Base 4:5.24.3-deepin.1.9
 _ZN4KWin13OutlineVisualD0Ev@Base 4:5.24.3-deepin.1.9
 _ZN4KWin13OutlineVisualD1Ev@Base 4:5.24.3-deepin.1.9
 _ZN4KWin13OutlineVisualD2Ev@Base 4:5.24.3-deepin.1.9
 _ZN4KWin13OverlayWindowC1Ev@Base 4:5.24.3-deepin.1.9
 _ZN4KWin13OverlayWindowC2Ev@Base 4:5.24.3-deepin.1.9
 _ZN4KWin13OverlayWindowD0Ev@Base 4:5.24.3-deepin.1.9
 _ZN4KWin13OverlayWindowD1Ev@Base 4:5.24.3-deepin.1.9
 _ZN4KWin13OverlayWindowD2Ev@Base 4:5.24.3-deepin.1.9
 _ZN4KWin13PluginFactory11qt_metacallEN11QMetaObject4CallEiPPv@Base 4:5.24.3-deepin.1.9
 _ZN4KWin13PluginFactory11qt_metacastEPKc@Base 4:5.24.3-deepin.1.9
 _ZN4KWin13PluginFactory16staticMetaObjectE@Base 4:5.24.3-deepin.1.9
 _ZN4KWin13PluginFactoryC1EP7QObject@Base 4:5.24.3-deepin.1.9
 _ZN4KWin13PluginFactoryC2EP7QObject@Base 4:5.24.3-deepin.1.9
 _ZN4KWin13PluginManager10loadPluginERK7QString@Base 4:5.24.3-deepin.1.9
 _ZN4KWin13PluginManager11qt_metacallEN11QMetaObject4CallEiPPv@Base 4:5.24.3-deepin.1.9
 _ZN4KWin13PluginManager11qt_metacastEPKc@Base 4:5.24.3-deepin.1.9
 _ZN4KWin13PluginManager12unloadPluginERK7QString@Base 4:5.24.3-deepin.1.9
 _ZN4KWin13PluginManager16loadStaticPluginERK7QString@Base 4:5.24.3-deepin.1.9
 _ZN4KWin13PluginManager16staticMetaObjectE@Base 4:5.24.3-deepin.1.9
 _ZN4KWin13PluginManager17instantiatePluginERK7QStringPNS_13PluginFactoryE@Base 4:5.24.3-deepin.1.9
 _ZN4KWin13PluginManager17loadDynamicPluginERK15KPluginMetaData@Base 4:5.24.3-deepin.1.9
 _ZN4KWin13PluginManager17loadDynamicPluginERK7QString@Base 4:5.24.3-deepin.1.9
 _ZN4KWin13PluginManager6createEP7QObject@Base 4:5.24.3-deepin.1.9
 _ZN4KWin13PluginManager6s_selfE@Base 4:5.24.3-deepin.1.9
 _ZN4KWin13PluginManagerC1EP7QObject@Base 4:5.24.3-deepin.1.9
 _ZN4KWin13PluginManagerC2EP7QObject@Base 4:5.24.3-deepin.1.9
 _ZN4KWin13PluginManagerD0Ev@Base 4:5.24.3-deepin.1.9
 _ZN4KWin13PluginManagerD1Ev@Base 4:5.24.3-deepin.1.9
 _ZN4KWin13PluginManagerD2Ev@Base 4:5.24.3-deepin.1.9
 _ZN4KWin13RenderBackend11qt_metacallEN11QMetaObject4CallEiPPv@Base 4:5.24.3-deepin.1.9
 _ZN4KWin13RenderBackend11qt_metacastEPKc@Base 4:5.24.3-deepin.1.9
 _ZN4KWin13RenderBackend16staticMetaObjectE@Base 4:5.24.3-deepin.1.9
 _ZN4KWin13RenderBackend18checkGraphicsResetEv@Base 4:5.24.3-deepin.1.9
 _ZN4KWin13RenderBackendC1EP7QObject@Base 4:5.24.3-deepin.1.9
 _ZN4KWin13RenderBackendC2EP7QObject@Base 4:5.24.3-deepin.1.9
 _ZN4KWin13RenderJournal10beginFrameEv@Base 4:5.24.3-deepin.1.9
 _ZN4KWin13RenderJournal8endFrameEv@Base 4:5.24.3-deepin.1.9
 _ZN4KWin13RenderJournalC1Ev@Base 4:5.24.3-deepin.1.9
 _ZN4KWin13RenderJournalC2Ev@Base 4:5.24.3-deepin.1.9
 _ZN4KWin13SceneQPainter11createSceneEPNS_15QPainterBackendEP7QObject@Base 4:5.24.3-deepin.1.9
 _ZN4KWin13SceneQPainter11paintCursorEPNS_14AbstractOutputERK7QRegion@Base 4:5.24.3-deepin.1.9
 _ZN4KWin13SceneQPainter11qt_metacallEN11QMetaObject4CallEiPPv@Base 4:5.24.3-deepin.1.9
 _ZN4KWin13SceneQPainter11qt_metacastEPKc@Base 4:5.24.3-deepin.1.9
 _ZN4KWin13SceneQPainter12createShadowEPNS_8ToplevelE@Base 4:5.24.3-deepin.1.9
 _ZN4KWin13SceneQPainter12createWindowEPNS_8ToplevelE@Base 4:5.24.3-deepin.1.9
 _ZN4KWin13SceneQPainter15paintBackgroundERK7QRegion@Base 4:5.24.3-deepin.1.9
 _ZN4KWin13SceneQPainter16staticMetaObjectE@Base 4:5.24.3-deepin.1.9
 _ZN4KWin13SceneQPainter17createEffectFrameEPNS_15EffectFrameImplE@Base 4:5.24.3-deepin.1.9
 _ZN4KWin13SceneQPainter18paintGenericScreenEiRKNS_15ScreenPaintDataE@Base 4:5.24.3-deepin.1.9
 _ZN4KWin13SceneQPainter23paintOffscreenQuickViewEPNS_18OffscreenQuickViewE@Base 4:5.24.3-deepin.1.9
 _ZN4KWin13SceneQPainter24createDecorationRendererEPNS_10Decoration19DecoratedClientImplE@Base 4:5.24.3-deepin.1.9
 _ZN4KWin13SceneQPainter27createSurfaceTextureWaylandEPNS_20SurfacePixmapWaylandE@Base 4:5.24.3-deepin.1.9
 _ZN4KWin13SceneQPainter28createSurfaceTextureInternalEPNS_21SurfacePixmapInternalE@Base 4:5.24.3-deepin.1.9
 _ZN4KWin13SceneQPainter5paintEPNS_14AbstractOutputERK7QRegionRK5QListIPNS_8ToplevelEEPNS_10RenderLoopE@Base 4:5.24.3-deepin.1.9
 _ZN4KWin13SceneQPainter6Window11qt_metacallEN11QMetaObject4CallEiPPv@Base 4:5.24.3-deepin.1.9
 _ZN4KWin13SceneQPainter6Window11qt_metacastEPKc@Base 4:5.24.3-deepin.1.9
 _ZN4KWin13SceneQPainter6Window12performPaintEiRK7QRegionRKNS_15WindowPaintDataE@Base 4:5.24.3-deepin.1.9
 _ZN4KWin13SceneQPainter6Window16staticMetaObjectE@Base 4:5.24.3-deepin.1.9
 _ZN4KWin13SceneQPainter6WindowC1EPS0_PNS_8ToplevelE@Base 4:5.24.3-deepin.1.9
 _ZN4KWin13SceneQPainter6WindowC2EPS0_PNS_8ToplevelE@Base 4:5.24.3-deepin.1.9
 _ZN4KWin13SceneQPainter6WindowD0Ev@Base 4:5.24.3-deepin.1.9
 _ZN4KWin13SceneQPainter6WindowD1Ev@Base 4:5.24.3-deepin.1.9
 _ZN4KWin13SceneQPainter6WindowD2Ev@Base 4:5.24.3-deepin.1.9
 _ZN4KWin13SceneQPainterC1EPNS_15QPainterBackendEP7QObject@Base 4:5.24.3-deepin.1.9
 _ZN4KWin13SceneQPainterC2EPNS_15QPainterBackendEP7QObject@Base 4:5.24.3-deepin.1.9
 _ZN4KWin13SceneQPainterD0Ev@Base 4:5.24.3-deepin.1.9
 _ZN4KWin13SceneQPainterD1Ev@Base 4:5.24.3-deepin.1.9
 _ZN4KWin13SceneQPainterD2Ev@Base 4:5.24.3-deepin.1.9
 _ZN4KWin13SurfacePixmap11qt_metacallEN11QMetaObject4CallEiPPv@Base 4:5.24.3-deepin.1.9
 _ZN4KWin13SurfacePixmap11qt_metacastEPKc@Base 4:5.24.3-deepin.1.9
 _ZN4KWin13SurfacePixmap15markAsDiscardedEv@Base 4:5.24.3-deepin.1.9
 _ZN4KWin13SurfacePixmap16staticMetaObjectE@Base 4:5.24.3-deepin.1.9
 _ZN4KWin13SurfacePixmap6updateEv@Base 4:5.24.3-deepin.1.9
 _ZN4KWin13SurfacePixmapC1EPNS_14SurfaceTextureEP7QObject@Base 4:5.24.3-deepin.1.9
 _ZN4KWin13SurfacePixmapC2EPNS_14SurfaceTextureEP7QObject@Base 4:5.24.3-deepin.1.9
 _ZN4KWin13WaylandServer11initializedEv@Base 4:5.24.3-deepin.1.9
 _ZN4KWin13WaylandServer11linuxDmabufEv@Base 4:5.24.3-deepin.1.9
 _ZN4KWin13WaylandServer11qt_metacallEN11QMetaObject4CallEiPPv@Base 4:5.24.3-deepin.1.9
 _ZN4KWin13WaylandServer11qt_metacastEPKc@Base 4:5.24.3-deepin.1.9
 _ZN4KWin13WaylandServer12initPlatformEv@Base 4:5.24.3-deepin.1.9
 _ZN4KWin13WaylandServer12removeClientEPNS_14AbstractClientE@Base 4:5.24.3-deepin.1.9
 _ZN4KWin13WaylandServer13initWorkspaceEv@Base 4:5.24.3-deepin.1.9
 _ZN4KWin13WaylandServer14updateKeyStateE6QFlagsINS_3LEDEE@Base 4:5.24.3-deepin.1.9
 _ZN4KWin13WaylandServer16createConnectionEv@Base 4:5.24.3-deepin.1.9
 _ZN4KWin13WaylandServer16initScreenLockerEv@Base 4:5.24.3-deepin.1.9
 _ZN4KWin13WaylandServer16shellClientAddedEPNS_14AbstractClientE@Base 4:5.24.3-deepin.1.9
 _ZN4KWin13WaylandServer16shellClientShownEPNS_8ToplevelE@Base 4:5.24.3-deepin.1.9
 _ZN4KWin13WaylandServer16staticMetaObjectE@Base 4:5.24.3-deepin.1.9
 _ZN4KWin13WaylandServer17handleOutputAddedEPNS_14AbstractOutputE@Base 4:5.24.3-deepin.1.9
 _ZN4KWin13WaylandServer18shellClientRemovedEPNS_14AbstractClientE@Base 4:5.24.3-deepin.1.9
 _ZN4KWin13WaylandServer19handleOutputEnabledEPNS_14AbstractOutputE@Base 4:5.24.3-deepin.1.9
 _ZN4KWin13WaylandServer19handleOutputRemovedEPNS_14AbstractOutputE@Base 4:5.24.3-deepin.1.9
 _ZN4KWin13WaylandServer19registerShellClientEPNS_14AbstractClientE@Base 4:5.24.3-deepin.1.9
 _ZN4KWin13WaylandServer20handleOutputDisabledEPNS_14AbstractOutputE@Base 4:5.24.3-deepin.1.9
 _ZN4KWin13WaylandServer20simulateUserActivityEv@Base 4:5.24.3-deepin.1.9
 _ZN4KWin13WaylandServer23foreignTransientChangedEPN14KWaylandServer16SurfaceInterfaceE@Base 4:5.24.3-deepin.1.9
 _ZN4KWin13WaylandServer24createXWaylandConnectionEv@Base 4:5.24.3-deepin.1.9
 _ZN4KWin13WaylandServer24registerXdgGenericClientEPNS_14AbstractClientE@Base 4:5.24.3-deepin.1.9
 _ZN4KWin13WaylandServer25destroyXWaylandConnectionEv@Base 4:5.24.3-deepin.1.9
 _ZN4KWin13WaylandServer25registerXdgToplevelClientEPNS_17XdgToplevelClientE@Base 4:5.24.3-deepin.1.9
 _ZN4KWin13WaylandServer27createInputMethodConnectionEv@Base 4:5.24.3-deepin.1.9
 _ZN4KWin13WaylandServer28createScreenLockerConnectionEv@Base 4:5.24.3-deepin.1.9
 _ZN4KWin13WaylandServer28destroyInputMethodConnectionEv@Base 4:5.24.3-deepin.1.9
 _ZN4KWin13WaylandServer30findForeignTransientForSurfaceEPN14KWaylandServer16SurfaceInterfaceE@Base 4:5.24.3-deepin.1.9
 _ZN4KWin13WaylandServer4initE6QFlagsINS0_18InitializationFlagEE@Base 4:5.24.3-deepin.1.9
 _ZN4KWin13WaylandServer4initERK7QString6QFlagsINS0_18InitializationFlagEE@Base 4:5.24.3-deepin.1.9
 _ZN4KWin13WaylandServer5startEv@Base 4:5.24.3-deepin.1.9
 _ZN4KWin13WaylandServer6createEP7QObject@Base 4:5.24.3-deepin.1.9
 _ZN4KWin13WaylandServer6s_selfE@Base 4:5.24.3-deepin.1.9
 _ZN4KWin13WaylandServerC1EP7QObject@Base 4:5.24.3-deepin.1.9
 _ZN4KWin13WaylandServerC2EP7QObject@Base 4:5.24.3-deepin.1.9
 _ZN4KWin13WaylandServerD0Ev@Base 4:5.24.3-deepin.1.9
 _ZN4KWin13WaylandServerD1Ev@Base 4:5.24.3-deepin.1.9
 _ZN4KWin13WaylandServerD2Ev@Base 4:5.24.3-deepin.1.9
 _ZN4KWin13WindowItemX1110initializeEv@Base 4:5.24.3-deepin.1.9
 _ZN4KWin13WindowItemX1111qt_metacallEN11QMetaObject4CallEiPPv@Base 4:5.24.3-deepin.1.9
 _ZN4KWin13WindowItemX1111qt_metacastEPKc@Base 4:5.24.3-deepin.1.9
 _ZN4KWin13WindowItemX1116staticMetaObjectE@Base 4:5.24.3-deepin.1.9
 _ZN4KWin13WindowItemX11C1EPNS_8ToplevelEPNS_4ItemE@Base 4:5.24.3-deepin.1.9
 _ZN4KWin13WindowItemX11C2EPNS_8ToplevelEPNS_4ItemE@Base 4:5.24.3-deepin.1.9
 _ZN4KWin13X11Compositor11qt_metacallEN11QMetaObject4CallEiPPv@Base 4:5.24.3-deepin.1.9
 _ZN4KWin13X11Compositor11qt_metacastEPKc@Base 4:5.24.3-deepin.1.9
 _ZN4KWin13X11Compositor12reinitializeEv@Base 4:5.24.3-deepin.1.9
 _ZN4KWin13X11Compositor13configChangedEv@Base 4:5.24.3-deepin.1.9
 _ZN4KWin13X11Compositor16staticMetaObjectE@Base 4:5.24.3-deepin.1.9
 _ZN4KWin13X11Compositor17toggleCompositingEv@Base 4:5.24.3-deepin.1.9
 _ZN4KWin13X11Compositor20slotResumeCompositorEi@Base 4:5.24.3-deepin.1.9
 _ZN4KWin13X11Compositor21slotSuspendCompositorEi@Base 4:5.24.3-deepin.1.9
 _ZN4KWin13X11Compositor29updateClientCompositeBlockingEPNS_9X11ClientE@Base 4:5.24.3-deepin.1.9
 _ZN4KWin13X11Compositor4selfEv@Base 4:5.24.3-deepin.1.9
 _ZN4KWin13X11Compositor4stopEv@Base 4:5.24.3-deepin.1.9
 _ZN4KWin13X11Compositor5startEv@Base 4:5.24.3-deepin.1.9
 _ZN4KWin13X11Compositor6createEP7QObject@Base 4:5.24.3-deepin.1.9
 _ZN4KWin13X11Compositor6resumeENS0_13SuspendReasonE@Base 4:5.24.3-deepin.1.9
 _ZN4KWin13X11Compositor7suspendENS0_13SuspendReasonE@Base 4:5.24.3-deepin.1.9
 _ZN4KWin13X11Compositor9compositeEPNS_10RenderLoopE@Base 4:5.24.3-deepin.1.9
 _ZN4KWin13X11CompositorC1EP7QObject@Base 4:5.24.3-deepin.1.9
 _ZN4KWin13X11CompositorC2EP7QObject@Base 4:5.24.3-deepin.1.9
 _ZN4KWin13X11CompositorD0Ev@Base 4:5.24.3-deepin.1.9
 _ZN4KWin13X11CompositorD1Ev@Base 4:5.24.3-deepin.1.9
 _ZN4KWin13X11CompositorD2Ev@Base 4:5.24.3-deepin.1.9
 _ZN4KWin13grabXKeyboardEj@Base 4:5.24.3-deepin.1.9
 _ZN4KWin13ungrabXServerEv@Base 4:5.24.3-deepin.1.9
 _ZN4KWin14AbstractClient10doMinimizeEv@Base 4:5.24.3-deepin.1.9
 _ZN4KWin14AbstractClient10doSetShadeENS_9ShadeModeE@Base 4:5.24.3-deepin.1.9
 _ZN4KWin14AbstractClient10keepInAreaE5QRectb@Base 4:5.24.3-deepin.1.9
 _ZN4KWin14AbstractClient10moveResizeERK5QRect@Base 4:5.24.3-deepin.1.9
 _ZN4KWin14AbstractClient10removeRuleEPNS_5RulesE@Base 4:5.24.3-deepin.1.9
 _ZN4KWin14AbstractClient10s_palettesE@Base 4:5.24.3-deepin.1.9
 _ZN4KWin14AbstractClient10setDesktopEi@Base 4:5.24.3-deepin.1.9
 _ZN4KWin14AbstractClient10shadeHoverEv@Base 4:5.24.3-deepin.1.9
 _ZN4KWin14AbstractClient10unminimizeEb@Base 4:5.24.3-deepin.1.9
 _ZN4KWin14AbstractClient11cleanTabBoxEv@Base 4:5.24.3-deepin.1.9
 _ZN4KWin14AbstractClient11doSetActiveEv@Base 4:5.24.3-deepin.1.9
 _ZN4KWin14AbstractClient11exitMaskingEv@Base 4:5.24.3-deepin.1.9
 _ZN4KWin14AbstractClient11iconChangedEv@Base 4:5.24.3-deepin.1.9
 _ZN4KWin14AbstractClient11qt_metacallEN11QMetaObject4CallEiPPv@Base 4:5.24.3-deepin.1.9
 _ZN4KWin14AbstractClient11qt_metacastEPKc@Base 4:5.24.3-deepin.1.9
 _ZN4KWin14AbstractClient11setDesktopsE7QVectorIPNS_14VirtualDesktopEE@Base 4:5.24.3-deepin.1.9
 _ZN4KWin14AbstractClient11setMaximizeEbb@Base 4:5.24.3-deepin.1.9
 _ZN4KWin14AbstractClient11setNoBorderEb@Base 4:5.24.3-deepin.1.9
 _ZN4KWin14AbstractClient11setShortcutERK7QString@Base 4:5.24.3-deepin.1.9
 _ZN4KWin14AbstractClient11toggleShadeEv@Base 4:5.24.3-deepin.1.9
 _ZN4KWin14AbstractClient11updateLayerEv@Base 4:5.24.3-deepin.1.9
 _ZN4KWin14AbstractClient12addTransientEPS0_@Base 4:5.24.3-deepin.1.9
 _ZN4KWin14AbstractClient12doSetDesktopEv@Base 4:5.24.3-deepin.1.9
 _ZN4KWin14AbstractClient12enterDesktopEPNS_14VirtualDesktopE@Base 4:5.24.3-deepin.1.9
 _ZN4KWin14AbstractClient12growVerticalEv@Base 4:5.24.3-deepin.1.9
 _ZN4KWin14AbstractClient12leaveDesktopEPNS_14VirtualDesktopE@Base 4:5.24.3-deepin.1.9
 _ZN4KWin14AbstractClient12markAsZombieEv@Base 4:5.24.3-deepin.1.9
 _ZN4KWin14AbstractClient12modalChangedEv@Base 4:5.24.3-deepin.1.9
 _ZN4KWin14AbstractClient12sendToOutputEPNS_14AbstractOutputE@Base 4:5.24.3-deepin.1.9
 _ZN4KWin14AbstractClient12setKeepAboveEb@Base 4:5.24.3-deepin.1.9
 _ZN4KWin14AbstractClient12setKeepBelowEb@Base 4:5.24.3-deepin.1.9
 _ZN4KWin14AbstractClient12setMinimizedEb@Base 4:5.24.3-deepin.1.9
 _ZN4KWin14AbstractClient12setSkipPagerEb@Base 4:5.24.3-deepin.1.9
 _ZN4KWin14AbstractClient12shadeUnhoverEv@Base 4:5.24.3-deepin.1.9
 _ZN4KWin14AbstractClient12transientForEv@Base 4:5.24.3-deepin.1.9
 _ZN4KWin14AbstractClient12updateCursorEv@Base 4:5.24.3-deepin.1.9
 _ZN4KWin14AbstractClient13activeChangedEv@Base 4:5.24.3-deepin.1.9
 _ZN4KWin14AbstractClient13checkNoBorderEv@Base 4:5.24.3-deepin.1.9
 _ZN4KWin14AbstractClient13hiddenChangedEv@Base 4:5.24.3-deepin.1.9
 _ZN4KWin14AbstractClient13keyPressEventEj@Base 4:5.24.3-deepin.1.9
 _ZN4KWin14AbstractClient13reCheckScreenEv@Base 4:5.24.3-deepin.1.9
 _ZN4KWin14AbstractClient13resizeMaskingEPS0_@Base 4:5.24.3-deepin.1.9
 _ZN4KWin14AbstractClient13setDecorationE14QSharedPointerIN12KDecoration210DecorationEE@Base 4:5.24.3-deepin.1.9
 _ZN4KWin14AbstractClient13setFullScreenEbb@Base 4:5.24.3-deepin.1.9
 _ZN4KWin14AbstractClient13setOnActivityERK7QStringb@Base 4:5.24.3-deepin.1.9
 _ZN4KWin14AbstractClient14captionChangedEv@Base 4:5.24.3-deepin.1.9
 _ZN4KWin14AbstractClient14changeMaximizeEbbb@Base 4:5.24.3-deepin.1.9
 _ZN4KWin14AbstractClient14checkResizableE5QSize@Base 4:5.24.3-deepin.1.9
 _ZN4KWin14AbstractClient14desktopChangedEv@Base 4:5.24.3-deepin.1.9
 _ZN4KWin14AbstractClient14doSetKeepAboveEv@Base 4:5.24.3-deepin.1.9
 _ZN4KWin14AbstractClient14doSetKeepBelowEv@Base 4:5.24.3-deepin.1.9
 _ZN4KWin14AbstractClient14doSetSkipPagerEv@Base 4:5.24.3-deepin.1.9
 _ZN4KWin14AbstractClient14growHorizontalEv@Base 4:5.24.3-deepin.1.9
 _ZN4KWin14AbstractClient14paletteChangedERK8QPalette@Base 4:5.24.3-deepin.1.9
 _ZN4KWin14AbstractClient14setClientShownEb@Base 4:5.24.3-deepin.1.9
 _ZN4KWin14AbstractClient14setColorSchemeERK7QString@Base 4:5.24.3-deepin.1.9
 _ZN4KWin14AbstractClient14setSkipTaskbarEb@Base 4:5.24.3-deepin.1.9
 _ZN4KWin14AbstractClient14shrinkVerticalEv@Base 4:5.24.3-deepin.1.9
 _ZN4KWin14AbstractClient14startAutoRaiseEv@Base 4:5.24.3-deepin.1.9
 _ZN4KWin14AbstractClient15cancelAutoRaiseEv@Base 4:5.24.3-deepin.1.9
 _ZN4KWin14AbstractClient15clientMinimizedEPS0_b@Base 4:5.24.3-deepin.1.9
 _ZN4KWin14AbstractClient15demandAttentionEb@Base 4:5.24.3-deepin.1.9
 _ZN4KWin14AbstractClient15invalidateLayerEv@Base 4:5.24.3-deepin.1.9
 _ZN4KWin14AbstractClient15quitSplitStatusEv@Base 4:5.24.3-deepin.1.9
 _ZN4KWin14AbstractClient15removeTransientEPS0_@Base 4:5.24.3-deepin.1.9
 _ZN4KWin14AbstractClient15setOnActivitiesERK11QStringList@Base 4:5.24.3-deepin.1.9
 _ZN4KWin14AbstractClient15setSkipSwitcherEb@Base 4:5.24.3-deepin.1.9
 _ZN4KWin14AbstractClient15setTransientForEPS0_@Base 4:5.24.3-deepin.1.9
 _ZN4KWin14AbstractClient15setUnresponsiveEb@Base 4:5.24.3-deepin.1.9
 _ZN4KWin14AbstractClient15showContextHelpEv@Base 4:5.24.3-deepin.1.9
 _ZN4KWin14AbstractClient15swapSplitClientE4QSetIPS0_Eii@Base 4:5.24.3-deepin.1.9
 _ZN4KWin14AbstractClient15updateMouseGrabEv@Base 4:5.24.3-deepin.1.9
 _ZN4KWin14AbstractClient16applyWindowRulesEv@Base 4:5.24.3-deepin.1.9
 _ZN4KWin14AbstractClient16closeableChangedEb@Base 4:5.24.3-deepin.1.9
 _ZN4KWin14AbstractClient16doSetSkipTaskbarEv@Base 4:5.24.3-deepin.1.9
 _ZN4KWin14AbstractClient16keepAboveChangedEb@Base 4:5.24.3-deepin.1.9
 _ZN4KWin14AbstractClient16keepBelowChangedEb@Base 4:5.24.3-deepin.1.9
 _ZN4KWin14AbstractClient16minimizedChangedEv@Base 4:5.24.3-deepin.1.9
 _ZN4KWin14AbstractClient16s_defaultPaletteE@Base 4:5.24.3-deepin.1.9
 _ZN4KWin14AbstractClient16setOnAllDesktopsEb@Base 4:5.24.3-deepin.1.9
 _ZN4KWin14AbstractClient16setQuickTileModeE6QFlagsINS_13QuickTileFlagEEb@Base 4:5.24.3-deepin.1.9
 _ZN4KWin14AbstractClient16setupWindowRulesEb@Base 4:5.24.3-deepin.1.9
 _ZN4KWin14AbstractClient16shadeableChangedEb@Base 4:5.24.3-deepin.1.9
 _ZN4KWin14AbstractClient16showOnScreenEdgeEv@Base 4:5.24.3-deepin.1.9
 _ZN4KWin14AbstractClient16showSplitPreviewEPS0_@Base 4:5.24.3-deepin.1.9
 _ZN4KWin14AbstractClient16shrinkHorizontalEv@Base 4:5.24.3-deepin.1.9
 _ZN4KWin14AbstractClient16skipPagerChangedEv@Base 4:5.24.3-deepin.1.9
 _ZN4KWin14AbstractClient16startShowMaskingEPS0_@Base 4:5.24.3-deepin.1.9
 _ZN4KWin14AbstractClient16staticMetaObjectE@Base 4:5.24.3-deepin.1.9
 _ZN4KWin14AbstractClient16transientChangedEv@Base 4:5.24.3-deepin.1.9
 _ZN4KWin14AbstractClient16updateActivitiesEb@Base 4:5.24.3-deepin.1.9
 _ZN4KWin14AbstractClient17activitiesChangedEPS0_@Base 4:5.24.3-deepin.1.9
 _ZN4KWin14AbstractClient17cancelSplitManageEv@Base 4:5.24.3-deepin.1.9
 _ZN4KWin14AbstractClient17clientUnminimizedEPS0_b@Base 4:5.24.3-deepin.1.9
 _ZN4KWin14AbstractClient17decorationChangedEv@Base 4:5.24.3-deepin.1.9
 _ZN4KWin14AbstractClient17doSetOnActivitiesERK11QStringList@Base 4:5.24.3-deepin.1.9
 _ZN4KWin14AbstractClient17doSetSkipSwitcherEv@Base 4:5.24.3-deepin.1.9
 _ZN4KWin14AbstractClient17finishWindowRulesEv@Base 4:5.24.3-deepin.1.9
 _ZN4KWin14AbstractClient17fullScreenChangedEv@Base 4:5.24.3-deepin.1.9
 _ZN4KWin14AbstractClient17manageSplitClientEbb@Base 4:5.24.3-deepin.1.9
 _ZN4KWin14AbstractClient17pointerEnterEventERK6QPoint@Base 4:5.24.3-deepin.1.9
 _ZN4KWin14AbstractClient17pointerLeaveEventEv@Base 4:5.24.3-deepin.1.9
 _ZN4KWin14AbstractClient17updateColorSchemeEv@Base 4:5.24.3-deepin.1.9
 _ZN4KWin14AbstractClient17updateWindowRulesE6QFlagsINS_5Rules4TypeEE@Base 4:5.24.3-deepin.1.9
 _ZN4KWin14AbstractClient18colorSchemeChangedEv@Base 4:5.24.3-deepin.1.9
 _ZN4KWin14AbstractClient18doSetQuickTileModeEv@Base 4:5.24.3-deepin.1.9
 _ZN4KWin14AbstractClient18moveResizedChangedEv@Base 4:5.24.3-deepin.1.9
 _ZN4KWin14AbstractClient18resetSplitGeometryEi@Base 4:5.24.3-deepin.1.9
 _ZN4KWin14AbstractClient18setDecoratedClientE8QPointerINS_10Decoration19DecoratedClientImplEE@Base 4:5.24.3-deepin.1.9
 _ZN4KWin14AbstractClient18setDesktopFileNameE10QByteArray@Base 4:5.24.3-deepin.1.9
 _ZN4KWin14AbstractClient18setGeometryRestoreERK5QRect@Base 4:5.24.3-deepin.1.9
 _ZN4KWin14AbstractClient18setOnAllActivitiesEb@Base 4:5.24.3-deepin.1.9
 _ZN4KWin14AbstractClient18skipTaskbarChangedEv@Base 4:5.24.3-deepin.1.9
 _ZN4KWin14AbstractClient19evaluateWindowRulesEv@Base 4:5.24.3-deepin.1.9
 _ZN4KWin14AbstractClient19handlePaletteChangeEv@Base 4:5.24.3-deepin.1.9
 _ZN4KWin14AbstractClient19iconFromDesktopFileERK7QString@Base 4:5.24.3-deepin.1.9
 _ZN4KWin14AbstractClient19maximizeableChangedEb@Base 4:5.24.3-deepin.1.9
 _ZN4KWin14AbstractClient19minimizeableChangedEb@Base 4:5.24.3-deepin.1.9
 _ZN4KWin14AbstractClient19performMouseCommandENS_7Options12MouseCommandERK6QPoint@Base 4:5.24.3-deepin.1.9
 _ZN4KWin14AbstractClient19setCustomOutlineQmlEb5QRect@Base 4:5.24.3-deepin.1.9
 _ZN4KWin14AbstractClient19setShortcutInternalEv@Base 4:5.24.3-deepin.1.9
 _ZN4KWin14AbstractClient19setSplitPositonFlagEb@Base 4:5.24.3-deepin.1.9
 _ZN4KWin14AbstractClient19showApplicationMenuEi@Base 4:5.24.3-deepin.1.9
 _ZN4KWin14AbstractClient19skipSwitcherChangedEv@Base 4:5.24.3-deepin.1.9
 _ZN4KWin14AbstractClient19unresponsiveChangedEb@Base 4:5.24.3-deepin.1.9
 _ZN4KWin14AbstractClient20blockActivityUpdatesEb@Base 4:5.24.3-deepin.1.9
 _ZN4KWin14AbstractClient20blockGeometryUpdatesEb@Base 4:5.24.3-deepin.1.9
 _ZN4KWin14AbstractClient20checkTileConstraintsE6QFlagsINS_13QuickTileFlagEE@Base 4:5.24.3-deepin.1.9
 _ZN4KWin14AbstractClient20invalidateDecorationEv@Base 4:5.24.3-deepin.1.9
 _ZN4KWin14AbstractClient20quickTileModeChangedEv@Base 4:5.24.3-deepin.1.9
 _ZN4KWin14AbstractClient20startShadeHoverTimerEv@Base 4:5.24.3-deepin.1.9
 _ZN4KWin14AbstractClient20touchPadToMoveWindowEii@Base 4:5.24.3-deepin.1.9
 _ZN4KWin14AbstractClient20x11DesktopIdsChangedEv@Base 4:5.24.3-deepin.1.9
 _ZN4KWin14AbstractClient21cancelShadeHoverTimerEv@Base 4:5.24.3-deepin.1.9
 _ZN4KWin14AbstractClient21discardTemporaryRulesEv@Base 4:5.24.3-deepin.1.9
 _ZN4KWin14AbstractClient21doSetDemandsAttentionEv@Base 4:5.24.3-deepin.1.9
 _ZN4KWin14AbstractClient21handleSplitscreenSwapEv@Base 4:5.24.3-deepin.1.9
 _ZN4KWin14AbstractClient21processDecorationMoveERK6QPointS3_@Base 4:5.24.3-deepin.1.9
 _ZN4KWin14AbstractClient21setElectricBorderModeE6QFlagsINS_13QuickTileFlagEE@Base 4:5.24.3-deepin.1.9
 _ZN4KWin14AbstractClient21setMoveResizeGeometryERK5QRect@Base 4:5.24.3-deepin.1.9
 _ZN4KWin14AbstractClient21setWindowForhibitMoveEb@Base 4:5.24.3-deepin.1.9
 _ZN4KWin14AbstractClient22applicationMenuChangedEv@Base 4:5.24.3-deepin.1.9
 _ZN4KWin14AbstractClient22checkClientAllowToTileEv@Base 4:5.24.3-deepin.1.9
 _ZN4KWin14AbstractClient22checkOffscreenPositionEP5QRectRKS1_@Base 4:5.24.3-deepin.1.9
 _ZN4KWin14AbstractClient22checkWorkspacePositionE5QRectS1_PKNS_14VirtualDesktopE@Base 4:5.24.3-deepin.1.9
 _ZN4KWin14AbstractClient22desktopFileNameChangedEv@Base 4:5.24.3-deepin.1.9
 _ZN4KWin14AbstractClient22desktopPresenceChangedEPS0_i@Base 4:5.24.3-deepin.1.9
 _ZN4KWin14AbstractClient22loadGioDesktopFileNameEv@Base 4:5.24.3-deepin.1.9
 _ZN4KWin14AbstractClient22setOriginalSkipTaskbarEb@Base 4:5.24.3-deepin.1.9
 _ZN4KWin14AbstractClient22startShadeUnhoverTimerEv@Base 4:5.24.3-deepin.1.9
 _ZN4KWin14AbstractClient23belongToSameApplicationEPKS0_S2_6QFlagsINS0_20SameApplicationCheckEE@Base 4:5.24.3-deepin.1.9
 _ZN4KWin14AbstractClient23demandsAttentionChangedEv@Base 4:5.24.3-deepin.1.9
 _ZN4KWin14AbstractClient23doInteractiveResizeSyncEv@Base 4:5.24.3-deepin.1.9
 _ZN4KWin14AbstractClient23moveResizeCursorChangedENS_11CursorShapeE@Base 4:5.24.3-deepin.1.9
 _ZN4KWin14AbstractClient23removeTransientFromListEPS0_@Base 4:5.24.3-deepin.1.9
 _ZN4KWin14AbstractClient24endInteractiveMoveResizeEv@Base 4:5.24.3-deepin.1.9
 _ZN4KWin14AbstractClient24setApplicationMenuActiveEb@Base 4:5.24.3-deepin.1.9
 _ZN4KWin14AbstractClient24setMoveResizePointerModeENS_7GravityE@Base 4:5.24.3-deepin.1.9
 _ZN4KWin14AbstractClient24triggerDecorationRepaintEv@Base 4:5.24.3-deepin.1.9
 _ZN4KWin14AbstractClient25dontInteractiveMoveResizeEv@Base 4:5.24.3-deepin.1.9
 _ZN4KWin14AbstractClient25getCalculateSplitGeometryEv@Base 4:5.24.3-deepin.1.9
 _ZN4KWin14AbstractClient25hasApplicationMenuChangedEb@Base 4:5.24.3-deepin.1.9
 _ZN4KWin14AbstractClient25setWindowSplitFromPreviewEi@Base 4:5.24.3-deepin.1.9
 _ZN4KWin14AbstractClient26clientStepUserMovedResizedEPS0_RK5QRect@Base 4:5.24.3-deepin.1.9
 _ZN4KWin14AbstractClient26leaveInteractiveMoveResizeEv@Base 4:5.24.3-deepin.1.9
 _ZN4KWin14AbstractClient26setKeyboardGeometryRestoreERK5QRect@Base 4:5.24.3-deepin.1.9
 _ZN4KWin14AbstractClient26setVirtualKeyboardGeometryERK5QRect@Base 4:5.24.3-deepin.1.9
 _ZN4KWin14AbstractClient26startInteractiveMoveResizeEv@Base 4:5.24.3-deepin.1.9
 _ZN4KWin14AbstractClient26updateDecorationInputShapeEv@Base 4:5.24.3-deepin.1.9
 _ZN4KWin14AbstractClient27checkClientAllowToFourSplitEv@Base 4:5.24.3-deepin.1.9
 _ZN4KWin14AbstractClient27clientMaximizedStateChangedEPS0_NS_12MaximizeModeE@Base 4:5.24.3-deepin.1.9
 _ZN4KWin14AbstractClient27clientMaximizedStateChangedEPS0_bb@Base 4:5.24.3-deepin.1.9
 _ZN4KWin14AbstractClient27clientStartUserMovedResizedEPS0_@Base 4:5.24.3-deepin.1.9
 _ZN4KWin14AbstractClient27finishInteractiveMoveResizeEb@Base 4:5.24.3-deepin.1.9
 _ZN4KWin14AbstractClient27handleInteractiveMoveResizeERK6QPointS3_@Base 4:5.24.3-deepin.1.9
 _ZN4KWin14AbstractClient27handleInteractiveMoveResizeEiiii@Base 4:5.24.3-deepin.1.9
 _ZN4KWin14AbstractClient27setElectricBorderMaximizingEb@Base 4:5.24.3-deepin.1.9
 _ZN4KWin14AbstractClient27updateInteractiveMoveResizeERK7QPointF@Base 4:5.24.3-deepin.1.9
 _ZN4KWin14AbstractClient28applicationMenuActiveChangedEb@Base 4:5.24.3-deepin.1.9
 _ZN4KWin14AbstractClient28clientFinishUserMovedResizedEPS0_@Base 4:5.24.3-deepin.1.9
 _ZN4KWin14AbstractClient28doStartInteractiveMoveResizeEv@Base 4:5.24.3-deepin.1.9
 _ZN4KWin14AbstractClient28processDecorationButtonPressEP11QMouseEventb@Base 4:5.24.3-deepin.1.9
 _ZN4KWin14AbstractClient28setFullscreenGeometryRestoreERK5QRect@Base 4:5.24.3-deepin.1.9
 _ZN4KWin14AbstractClient29doFinishInteractiveMoveResizeEv@Base 4:5.24.3-deepin.1.9
 _ZN4KWin14AbstractClient29updateElectricGeometryRestoreEv@Base 4:5.24.3-deepin.1.9
 _ZN4KWin14AbstractClient30processDecorationButtonReleaseEP11QMouseEvent@Base 4:5.24.3-deepin.1.9
 _ZN4KWin14AbstractClient30setupWindowManagementInterfaceEv@Base 4:5.24.3-deepin.1.9
 _ZN4KWin14AbstractClient31startDecorationDoubleClickTimerEv@Base 4:5.24.3-deepin.1.9
 _ZN4KWin14AbstractClient31updateApplicationMenuObjectPathERK7QString@Base 4:5.24.3-deepin.1.9
 _ZN4KWin14AbstractClient31updateInitialMoveResizeGeometryEv@Base 4:5.24.3-deepin.1.9
 _ZN4KWin14AbstractClient32stopDelayedInteractiveMoveResizeEv@Base 4:5.24.3-deepin.1.9
 _ZN4KWin14AbstractClient32updateApplicationMenuServiceNameERK7QString@Base 4:5.24.3-deepin.1.9
 _ZN4KWin14AbstractClient33checkQuickTilingMaximizationZonesEii@Base 4:5.24.3-deepin.1.9
 _ZN4KWin14AbstractClient33startDelayedInteractiveMoveResizeEv@Base 4:5.24.3-deepin.1.9
 _ZN4KWin14AbstractClient35updateGeometryRestoresForFullscreenEPNS_14AbstractOutputE@Base 4:5.24.3-deepin.1.9
 _ZN4KWin14AbstractClient36invalidateDecorationDoubleClickTimerEv@Base 4:5.24.3-deepin.1.9
 _ZN4KWin14AbstractClient38checkUnrestrictedInteractiveMoveResizeEv@Base 4:5.24.3-deepin.1.9
 _ZN4KWin14AbstractClient4moveERK6QPoint@Base 4:5.24.3-deepin.1.9
 _ZN4KWin14AbstractClient5groupEv@Base 4:5.24.3-deepin.1.9
 _ZN4KWin14AbstractClient6packToEii@Base 4:5.24.3-deepin.1.9
 _ZN4KWin14AbstractClient6resizeERK5QSize@Base 4:5.24.3-deepin.1.9
 _ZN4KWin14AbstractClient7setIconERK5QIcon@Base 4:5.24.3-deepin.1.9
 _ZN4KWin14AbstractClient8maximizeENS_12MaximizeModeE@Base 4:5.24.3-deepin.1.9
 _ZN4KWin14AbstractClient8minimizeEb@Base 4:5.24.3-deepin.1.9
 _ZN4KWin14AbstractClient8setModalEb@Base 4:5.24.3-deepin.1.9
 _ZN4KWin14AbstractClient8setShadeENS_9ShadeModeE@Base 4:5.24.3-deepin.1.9
 _ZN4KWin14AbstractClient8setShadeEb@Base 4:5.24.3-deepin.1.9
 _ZN4KWin14AbstractClient9autoRaiseEv@Base 4:5.24.3-deepin.1.9
 _ZN4KWin14AbstractClient9setActiveEb@Base 4:5.24.3-deepin.1.9
 _ZN4KWin14AbstractClientC1Ev@Base 4:5.24.3-deepin.1.9
 _ZN4KWin14AbstractClientC2Ev@Base 4:5.24.3-deepin.1.9
 _ZN4KWin14AbstractClientD0Ev@Base 4:5.24.3-deepin.1.9
 _ZN4KWin14AbstractClientD1Ev@Base 4:5.24.3-deepin.1.9
 _ZN4KWin14AbstractClientD2Ev@Base 4:5.24.3-deepin.1.9
 _ZN4KWin14AbstractOutput10setEnabledEb@Base 4:5.24.3-deepin.1.9
 _ZN4KWin14AbstractOutput11qt_metacallEN11QMetaObject4CallEiPPv@Base 4:5.24.3-deepin.1.9
 _ZN4KWin14AbstractOutput11qt_metacastEPKc@Base 4:5.24.3-deepin.1.9
 _ZN4KWin14AbstractOutput12scaleChangedEv@Base 4:5.24.3-deepin.1.9
 _ZN4KWin14AbstractOutput12setGammaRampERKNS_9GammaRampE@Base 4:5.24.3-deepin.1.9
 _ZN4KWin14AbstractOutput13aboutToChangeEv@Base 4:5.24.3-deepin.1.9
 _ZN4KWin14AbstractOutput14aboutToTurnOffENSt6chrono8durationIlSt5ratioILl1ELl1000EEEE@Base 4:5.24.3-deepin.1.9
 _ZN4KWin14AbstractOutput14enabledChangedEv@Base 4:5.24.3-deepin.1.9
 _ZN4KWin14AbstractOutput15geometryChangedEv@Base 4:5.24.3-deepin.1.9
 _ZN4KWin14AbstractOutput16dimAnimationTimeEv@Base 4:5.24.3-deepin.1.9
 _ZN4KWin14AbstractOutput16staticMetaObjectE@Base 4:5.24.3-deepin.1.9
 _ZN4KWin14AbstractOutput20inhibitDirectScanoutEv@Base 4:5.24.3-deepin.1.9
 _ZN4KWin14AbstractOutput22uninhibitDirectScanoutEv@Base 4:5.24.3-deepin.1.9
 _ZN4KWin14AbstractOutput6wakeUpEv@Base 4:5.24.3-deepin.1.9
 _ZN4KWin14AbstractOutput7changedEv@Base 4:5.24.3-deepin.1.9
 _ZN4KWin14AbstractOutputC1EP7QObject@Base 4:5.24.3-deepin.1.9
 _ZN4KWin14AbstractOutputC2EP7QObject@Base 4:5.24.3-deepin.1.9
 _ZN4KWin14AbstractOutputD0Ev@Base 4:5.24.3-deepin.1.9
 _ZN4KWin14AbstractOutputD1Ev@Base 4:5.24.3-deepin.1.9
 _ZN4KWin14AbstractOutputD2Ev@Base 4:5.24.3-deepin.1.9
 _ZN4KWin14AbstractScript11qt_metacallEN11QMetaObject4CallEiPPv@Base 4:5.24.3-deepin.1.9
 _ZN4KWin14AbstractScript11qt_metacastEPKc@Base 4:5.24.3-deepin.1.9
 _ZN4KWin14AbstractScript14runningChangedEb@Base 4:5.24.3-deepin.1.9
 _ZN4KWin14AbstractScript16staticMetaObjectE@Base 4:5.24.3-deepin.1.9
 _ZN4KWin14AbstractScript4stopEv@Base 4:5.24.3-deepin.1.9
 _ZN4KWin14AbstractScriptC1Ei7QStringS1_P7QObject@Base 4:5.24.3-deepin.1.9
 _ZN4KWin14AbstractScriptC2Ei7QStringS1_P7QObject@Base 4:5.24.3-deepin.1.9
 _ZN4KWin14AbstractScriptD0Ev@Base 4:5.24.3-deepin.1.9
 _ZN4KWin14AbstractScriptD1Ev@Base 4:5.24.3-deepin.1.9
 _ZN4KWin14AbstractScriptD2Ev@Base 4:5.24.3-deepin.1.9
 _ZN4KWin14DecorationItem10preprocessEv@Base 4:5.24.3-deepin.1.9
 _ZN4KWin14DecorationItem11qt_metacallEN11QMetaObject4CallEiPPv@Base 4:5.24.3-deepin.1.9
 _ZN4KWin14DecorationItem11qt_metacastEPKc@Base 4:5.24.3-deepin.1.9
 _ZN4KWin14DecorationItem16staticMetaObjectE@Base 4:5.24.3-deepin.1.9
 _ZN4KWin14DecorationItem18handleWindowClosedEPNS_8ToplevelEPNS_7DeletedE@Base 4:5.24.3-deepin.1.9
 _ZN4KWin14DecorationItem19handleOutputChangedEv@Base 4:5.24.3-deepin.1.9
 _ZN4KWin14DecorationItem24handleOutputScaleChangedEv@Base 4:5.24.3-deepin.1.9
 _ZN4KWin14DecorationItem26handleFrameGeometryChangedEv@Base 4:5.24.3-deepin.1.9
 _ZN4KWin14DecorationItemC1EPN12KDecoration210DecorationEPNS_14AbstractClientEPNS_4ItemE@Base 4:5.24.3-deepin.1.9
 _ZN4KWin14DecorationItemC2EPN12KDecoration210DecorationEPNS_14AbstractClientEPNS_4ItemE@Base 4:5.24.3-deepin.1.9
 _ZN4KWin14FTraceDurationD1Ev@Base 4:5.24.3-deepin.1.9
 _ZN4KWin14FTraceDurationD2Ev@Base 4:5.24.3-deepin.1.9
 _ZN4KWin14InternalClient10hideClientEv@Base 4:5.24.3-deepin.1.9
 _ZN4KWin14InternalClient10killWindowEv@Base 4:5.24.3-deepin.1.9
 _ZN4KWin14InternalClient10setCaptionERK7QString@Base 4:5.24.3-deepin.1.9
 _ZN4KWin14InternalClient10showClientEv@Base 4:5.24.3-deepin.1.9
 _ZN4KWin14InternalClient11closeWindowEv@Base 4:5.24.3-deepin.1.9
 _ZN4KWin14InternalClient11eventFilterEP7QObjectP6QEvent@Base 4:5.24.3-deepin.1.9
 _ZN4KWin14InternalClient11qt_metacallEN11QMetaObject4CallEiPPv@Base 4:5.24.3-deepin.1.9
 _ZN4KWin14InternalClient11qt_metacastEPKc@Base 4:5.24.3-deepin.1.9
 _ZN4KWin14InternalClient11setNoBorderEb@Base 4:5.24.3-deepin.1.9
 _ZN4KWin14InternalClient12markAsMappedEv@Base 4:5.24.3-deepin.1.9
 _ZN4KWin14InternalClient13destroyClientEv@Base 4:5.24.3-deepin.1.9
 _ZN4KWin14InternalClient13updateCaptionEv@Base 4:5.24.3-deepin.1.9
 _ZN4KWin14InternalClient14commitGeometryERK5QRect@Base 4:5.24.3-deepin.1.9
 _ZN4KWin14InternalClient15requestGeometryERK5QRect@Base 4:5.24.3-deepin.1.9
 _ZN4KWin14InternalClient16createDecorationERK5QRect@Base 4:5.24.3-deepin.1.9
 _ZN4KWin14InternalClient16resizeWithChecksERK5QSize@Base 4:5.24.3-deepin.1.9
 _ZN4KWin14InternalClient16staticMetaObjectE@Base 4:5.24.3-deepin.1.9
 _ZN4KWin14InternalClient16updateDecorationEbb@Base 4:5.24.3-deepin.1.9
 _ZN4KWin14InternalClient17destroyDecorationEv@Base 4:5.24.3-deepin.1.9
 _ZN4KWin14InternalClient17pointerEnterEventERK6QPoint@Base 4:5.24.3-deepin.1.9
 _ZN4KWin14InternalClient17pointerLeaveEventEv@Base 4:5.24.3-deepin.1.9
 _ZN4KWin14InternalClient18moveResizeInternalERK5QRectNS_14AbstractClient14MoveResizeModeE@Base 4:5.24.3-deepin.1.9
 _ZN4KWin14InternalClient20invalidateDecorationEv@Base 4:5.24.3-deepin.1.9
 _ZN4KWin14InternalClient23doInteractiveResizeSyncEv@Base 4:5.24.3-deepin.1.9
 _ZN4KWin14InternalClient28syncGeometryToInternalWindowEv@Base 4:5.24.3-deepin.1.9
 _ZN4KWin14InternalClient28updateInternalWindowGeometryEv@Base 4:5.24.3-deepin.1.9
 _ZN4KWin14InternalClient7presentE14QSharedPointerI24QOpenGLFramebufferObjectE@Base 4:5.24.3-deepin.1.9
 _ZN4KWin14InternalClient7presentERK6QImageRK7QRegion@Base 4:5.24.3-deepin.1.9
 _ZN4KWin14InternalClient9findModalEb@Base 4:5.24.3-deepin.1.9
 _ZN4KWin14InternalClient9popupDoneEv@Base 4:5.24.3-deepin.1.9
 _ZN4KWin14InternalClient9takeFocusEv@Base 4:5.24.3-deepin.1.9
 _ZN4KWin14InternalClientC1EP7QWindow@Base 4:5.24.3-deepin.1.9
 _ZN4KWin14InternalClientC2EP7QWindow@Base 4:5.24.3-deepin.1.9
 _ZN4KWin14InternalClientD0Ev@Base 4:5.24.3-deepin.1.9
 _ZN4KWin14InternalClientD1Ev@Base 4:5.24.3-deepin.1.9
 _ZN4KWin14InternalClientD2Ev@Base 4:5.24.3-deepin.1.9
 _ZN4KWin14KXcursorSpriteC1ERK6QImageRK6QPointRKNSt6chrono8durationIlSt5ratioILl1ELl1000EEEE@Base 4:5.24.3-deepin.1.9
 _ZN4KWin14KXcursorSpriteC1ERKS0_@Base 4:5.24.3-deepin.1.9
 _ZN4KWin14KXcursorSpriteC1Ev@Base 4:5.24.3-deepin.1.9
 _ZN4KWin14KXcursorSpriteC2ERK6QImageRK6QPointRKNSt6chrono8durationIlSt5ratioILl1ELl1000EEEE@Base 4:5.24.3-deepin.1.9
 _ZN4KWin14KXcursorSpriteC2ERKS0_@Base 4:5.24.3-deepin.1.9
 _ZN4KWin14KXcursorSpriteC2Ev@Base 4:5.24.3-deepin.1.9
 _ZN4KWin14KXcursorSpriteD1Ev@Base 4:5.24.3-deepin.1.9
 _ZN4KWin14KXcursorSpriteD2Ev@Base 4:5.24.3-deepin.1.9
 _ZN4KWin14KXcursorSpriteaSERKS0_@Base 4:5.24.3-deepin.1.9
 _ZN4KWin14ScriptedEffect10readConfigERK7QStringRK8QJSValue@Base 4:5.24.3-deepin.1.9
 _ZN4KWin14ScriptedEffect11qt_metacallEN11QMetaObject4CallEiPPv@Base 4:5.24.3-deepin.1.9
 _ZN4KWin14ScriptedEffect11qt_metacastEPKc@Base 4:5.24.3-deepin.1.9
 _ZN4KWin14ScriptedEffect11reconfigureE6QFlagsINS_6Effect15ReconfigureFlagEE@Base 4:5.24.3-deepin.1.9
 _ZN4KWin14ScriptedEffect13configChangedEv@Base 4:5.24.3-deepin.1.9
 _ZN4KWin14ScriptedEffect14animate_helperERK8QJSValueNS0_13AnimationTypeE@Base 4:5.24.3-deepin.1.9
 _ZN4KWin14ScriptedEffect14animationEndedEPNS_12EffectWindowENS_15AnimationEffect9AttributeEj@Base 4:5.24.3-deepin.1.9
 _ZN4KWin14ScriptedEffect14animationEndedEPNS_12EffectWindowEy@Base 4:5.24.3-deepin.1.9
 _ZN4KWin14ScriptedEffect15borderActivatedENS_14ElectricBorderE@Base 4:5.24.3-deepin.1.9
 _ZN4KWin14ScriptedEffect16registerShortcutERK7QStringS3_S3_RK8QJSValue@Base 4:5.24.3-deepin.1.9
 _ZN4KWin14ScriptedEffect16staticMetaObjectE@Base 4:5.24.3-deepin.1.9
 _ZN4KWin14ScriptedEffect18registerScreenEdgeEiRK8QJSValue@Base 4:5.24.3-deepin.1.9
 _ZN4KWin14ScriptedEffect20unregisterScreenEdgeEi@Base 4:5.24.3-deepin.1.9
 _ZN4KWin14ScriptedEffect23registerTouchScreenEdgeEiRK8QJSValue@Base 4:5.24.3-deepin.1.9
 _ZN4KWin14ScriptedEffect25unregisterTouchScreenEdgeEi@Base 4:5.24.3-deepin.1.9
 _ZN4KWin14ScriptedEffect31isActiveFullScreenEffectChangedEv@Base 4:5.24.3-deepin.1.9
 _ZN4KWin14ScriptedEffect3setEPNS_12EffectWindowENS_15AnimationEffect9AttributeEiRK8QJSValueS7_jiibb@Base 4:5.24.3-deepin.1.9
 _ZN4KWin14ScriptedEffect3setERK8QJSValue@Base 4:5.24.3-deepin.1.9
 _ZN4KWin14ScriptedEffect4grabEPNS_12EffectWindowENS0_8DataRoleEb@Base 4:5.24.3-deepin.1.9
 _ZN4KWin14ScriptedEffect4initERK7QStringS3_@Base 4:5.24.3-deepin.1.9
 _ZN4KWin14ScriptedEffect6cancelERK5QListIyE@Base 4:5.24.3-deepin.1.9
 _ZN4KWin14ScriptedEffect6cancelEy@Base 4:5.24.3-deepin.1.9
 _ZN4KWin14ScriptedEffect6createERK15KPluginMetaData@Base 4:5.24.3-deepin.1.9
 _ZN4KWin14ScriptedEffect6createERK7QStringS3_i@Base 4:5.24.3-deepin.1.9
 _ZN4KWin14ScriptedEffect6ungrabEPNS_12EffectWindowENS0_8DataRoleE@Base 4:5.24.3-deepin.1.9
 _ZN4KWin14ScriptedEffect7animateEPNS_12EffectWindowENS_15AnimationEffect9AttributeEiRK8QJSValueS7_jiibb@Base 4:5.24.3-deepin.1.9
 _ZN4KWin14ScriptedEffect7animateERK8QJSValue@Base 4:5.24.3-deepin.1.9
 _ZN4KWin14ScriptedEffect8completeERK5QListIyE@Base 4:5.24.3-deepin.1.9
 _ZN4KWin14ScriptedEffect8completeEy@Base 4:5.24.3-deepin.1.9
 _ZN4KWin14ScriptedEffect8redirectERK5QListIyENS_15AnimationEffect9DirectionE6QFlagsINS5_15TerminationFlagEE@Base 4:5.24.3-deepin.1.9
 _ZN4KWin14ScriptedEffect8redirectEyNS_15AnimationEffect9DirectionE6QFlagsINS1_15TerminationFlagEE@Base 4:5.24.3-deepin.1.9
 _ZN4KWin14ScriptedEffect8retargetERK5QListIyERK8QJSValuei@Base 4:5.24.3-deepin.1.9
 _ZN4KWin14ScriptedEffect8retargetEyRK8QJSValuei@Base 4:5.24.3-deepin.1.9
 _ZN4KWin14ScriptedEffect9isGrabbedEPNS_12EffectWindowENS0_8DataRoleE@Base 4:5.24.3-deepin.1.9
 _ZN4KWin14ScriptedEffect9supportedEv@Base 4:5.24.3-deepin.1.9
 _ZN4KWin14ScriptedEffectC1Ev@Base 4:5.24.3-deepin.1.9
 _ZN4KWin14ScriptedEffectC2Ev@Base 4:5.24.3-deepin.1.9
 _ZN4KWin14ScriptedEffectD0Ev@Base 4:5.24.3-deepin.1.9
 _ZN4KWin14ScriptedEffectD1Ev@Base 4:5.24.3-deepin.1.9
 _ZN4KWin14ScriptedEffectD2Ev@Base 4:5.24.3-deepin.1.9
 _ZN4KWin14SurfaceItemX1110preprocessEv@Base 4:5.24.3-deepin.1.9
 _ZN4KWin14SurfaceItemX1111fetchDamageEv@Base 4:5.24.3-deepin.1.9
 _ZN4KWin14SurfaceItemX1111qt_metacallEN11QMetaObject4CallEiPPv@Base 4:5.24.3-deepin.1.9
 _ZN4KWin14SurfaceItemX1111qt_metacastEPKc@Base 4:5.24.3-deepin.1.9
 _ZN4KWin14SurfaceItemX1112createPixmapEv@Base 4:5.24.3-deepin.1.9
 _ZN4KWin14SurfaceItemX1113destroyDamageEv@Base 4:5.24.3-deepin.1.9
 _ZN4KWin14SurfaceItemX1113processDamageEv@Base 4:5.24.3-deepin.1.9
 _ZN4KWin14SurfaceItemX1113waitForDamageEv@Base 4:5.24.3-deepin.1.9
 _ZN4KWin14SurfaceItemX1116staticMetaObjectE@Base 4:5.24.3-deepin.1.9
 _ZN4KWin14SurfaceItemX1127handleBufferGeometryChangedEPNS_8ToplevelERK5QRect@Base 4:5.24.3-deepin.1.9
 _ZN4KWin14SurfaceItemX11C1EPNS_8ToplevelEPNS_4ItemE@Base 4:5.24.3-deepin.1.9
 _ZN4KWin14SurfaceItemX11C2EPNS_8ToplevelEPNS_4ItemE@Base 4:5.24.3-deepin.1.9
 _ZN4KWin14SurfaceItemX11D0Ev@Base 4:5.24.3-deepin.1.9
 _ZN4KWin14SurfaceItemX11D1Ev@Base 4:5.24.3-deepin.1.9
 _ZN4KWin14SurfaceItemX11D2Ev@Base 4:5.24.3-deepin.1.9
 _ZN4KWin14SurfaceTextureD0Ev@Base 4:5.24.3-deepin.1.9
 _ZN4KWin14SurfaceTextureD1Ev@Base 4:5.24.3-deepin.1.9
 _ZN4KWin14SurfaceTextureD2Ev@Base 4:5.24.3-deepin.1.9
 _ZN4KWin14VirtualDesktop11nameChangedEv@Base 4:5.24.3-deepin.1.9
 _ZN4KWin14VirtualDesktop11qt_metacallEN11QMetaObject4CallEiPPv@Base 4:5.24.3-deepin.1.9
 _ZN4KWin14VirtualDesktop11qt_metacastEPKc@Base 4:5.24.3-deepin.1.9
 _ZN4KWin14VirtualDesktop16staticMetaObjectE@Base 4:5.24.3-deepin.1.9
 _ZN4KWin14VirtualDesktop18aboutToBeDestroyedEv@Base 4:5.24.3-deepin.1.9
 _ZN4KWin14VirtualDesktop19setX11DesktopNumberEj@Base 4:5.24.3-deepin.1.9
 _ZN4KWin14VirtualDesktop23x11DesktopNumberChangedEv@Base 4:5.24.3-deepin.1.9
 _ZN4KWin14VirtualDesktop5setIdERK7QString@Base 4:5.24.3-deepin.1.9
 _ZN4KWin14VirtualDesktop7setNameERK7QString@Base 4:5.24.3-deepin.1.9
 _ZN4KWin14VirtualDesktopC1EP7QObject@Base 4:5.24.3-deepin.1.9
 _ZN4KWin14VirtualDesktopC2EP7QObject@Base 4:5.24.3-deepin.1.9
 _ZN4KWin14VirtualDesktopD0Ev@Base 4:5.24.3-deepin.1.9
 _ZN4KWin14VirtualDesktopD1Ev@Base 4:5.24.3-deepin.1.9
 _ZN4KWin14VirtualDesktopD2Ev@Base 4:5.24.3-deepin.1.9
 _ZN4KWin14X11EventFilterC1ERK7QVectorIiE@Base 4:5.24.3-deepin.1.9
 _ZN4KWin14X11EventFilterC1EiiRK7QVectorIiE@Base 4:5.24.3-deepin.1.9
 _ZN4KWin14X11EventFilterC1Eiii@Base 4:5.24.3-deepin.1.9
 _ZN4KWin14X11EventFilterC2ERK7QVectorIiE@Base 4:5.24.3-deepin.1.9
 _ZN4KWin14X11EventFilterC2EiiRK7QVectorIiE@Base 4:5.24.3-deepin.1.9
 _ZN4KWin14X11EventFilterC2Eiii@Base 4:5.24.3-deepin.1.9
 _ZN4KWin14X11EventFilterD0Ev@Base 4:5.24.3-deepin.1.9
 _ZN4KWin14X11EventFilterD1Ev@Base 4:5.24.3-deepin.1.9
 _ZN4KWin14X11EventFilterD2Ev@Base 4:5.24.3-deepin.1.9
 _ZN4KWin15EffectFrameImpl10autoResizeEv@Base 4:5.24.3-deepin.1.9
 _ZN4KWin15EffectFrameImpl11qt_metacallEN11QMetaObject4CallEiPPv@Base 4:5.24.3-deepin.1.9
 _ZN4KWin15EffectFrameImpl11qt_metacastEPKc@Base 4:5.24.3-deepin.1.9
 _ZN4KWin15EffectFrameImpl11setGeometryERK5QRectb@Base 4:5.24.3-deepin.1.9
 _ZN4KWin15EffectFrameImpl11setIconSizeERK5QSize@Base 4:5.24.3-deepin.1.9
 _ZN4KWin15EffectFrameImpl11setPositionERK6QPoint@Base 4:5.24.3-deepin.1.9
 _ZN4KWin15EffectFrameImpl12setAlignmentE6QFlagsIN2Qt13AlignmentFlagEE@Base 4:5.24.3-deepin.1.9
 _ZN4KWin15EffectFrameImpl12setSelectionERK5QRect@Base 4:5.24.3-deepin.1.9
 _ZN4KWin15EffectFrameImpl15styledTextColorEv@Base 4:5.24.3-deepin.1.9
 _ZN4KWin15EffectFrameImpl16staticMetaObjectE@Base 4:5.24.3-deepin.1.9
 _ZN4KWin15EffectFrameImpl18plasmaThemeChangedEv@Base 4:5.24.3-deepin.1.9
 _ZN4KWin15EffectFrameImpl4freeEv@Base 4:5.24.3-deepin.1.9
 _ZN4KWin15EffectFrameImpl5alignER5QRect@Base 4:5.24.3-deepin.1.9
 _ZN4KWin15EffectFrameImpl6renderERK7QRegiondd@Base 4:5.24.3-deepin.1.9
 _ZN4KWin15EffectFrameImpl7setFontERK5QFont@Base 4:5.24.3-deepin.1.9
 _ZN4KWin15EffectFrameImpl7setIconERK5QIcon@Base 4:5.24.3-deepin.1.9
 _ZN4KWin15EffectFrameImpl7setTextERK7QString@Base 4:5.24.3-deepin.1.9
 _ZN4KWin15EffectFrameImplC1ENS_16EffectFrameStyleEb6QPoint6QFlagsIN2Qt13AlignmentFlagEE@Base 4:5.24.3-deepin.1.9
 _ZN4KWin15EffectFrameImplC2ENS_16EffectFrameStyleEb6QPoint6QFlagsIN2Qt13AlignmentFlagEE@Base 4:5.24.3-deepin.1.9
 _ZN4KWin15EffectFrameImplD0Ev@Base 4:5.24.3-deepin.1.9
 _ZN4KWin15EffectFrameImplD1Ev@Base 4:5.24.3-deepin.1.9
 _ZN4KWin15EffectFrameImplD2Ev@Base 4:5.24.3-deepin.1.9
 _ZN4KWin15LibinputBackend10initializeEv@Base 4:5.24.3-deepin.1.9
 _ZN4KWin15LibinputBackend11qt_metacallEN11QMetaObject4CallEiPPv@Base 4:5.24.3-deepin.1.9
 _ZN4KWin15LibinputBackend11qt_metacastEPKc@Base 4:5.24.3-deepin.1.9
 _ZN4KWin15LibinputBackend16staticMetaObjectE@Base 4:5.24.3-deepin.1.9
 _ZN4KWin15LibinputBackendC1EP7QObject@Base 4:5.24.3-deepin.1.9
 _ZN4KWin15LibinputBackendC2EP7QObject@Base 4:5.24.3-deepin.1.9
 _ZN4KWin15LibinputBackendD0Ev@Base 4:5.24.3-deepin.1.9
 _ZN4KWin15LibinputBackendD1Ev@Base 4:5.24.3-deepin.1.9
 _ZN4KWin15LibinputBackendD2Ev@Base 4:5.24.3-deepin.1.9
 _ZN4KWin15QPainterBackend11qt_metacallEN11QMetaObject4CallEiPPv@Base 4:5.24.3-deepin.1.9
 _ZN4KWin15QPainterBackend11qt_metacastEPKc@Base 4:5.24.3-deepin.1.9
 _ZN4KWin15QPainterBackend16staticMetaObjectE@Base 4:5.24.3-deepin.1.9
 _ZN4KWin15QPainterBackend27createSurfaceTextureWaylandEPNS_20SurfacePixmapWaylandE@Base 4:5.24.3-deepin.1.9
 _ZN4KWin15QPainterBackend28createSurfaceTextureInternalEPNS_21SurfacePixmapInternalE@Base 4:5.24.3-deepin.1.9
 _ZN4KWin15QPainterBackend9setFailedERK7QString@Base 4:5.24.3-deepin.1.9
 _ZN4KWin15QPainterBackendC1Ev@Base 4:5.24.3-deepin.1.9
 _ZN4KWin15QPainterBackendC2Ev@Base 4:5.24.3-deepin.1.9
 _ZN4KWin15QPainterBackendD0Ev@Base 4:5.24.3-deepin.1.9
 _ZN4KWin15QPainterBackendD1Ev@Base 4:5.24.3-deepin.1.9
 _ZN4KWin15QPainterBackendD2Ev@Base 4:5.24.3-deepin.1.9
 _ZN4KWin15UserActionsMenu11handleClickERK6QPoint@Base 4:5.24.3-deepin.1.9
 _ZN4KWin15UserActionsMenu11prepareMenuERK8QPointerINS_14AbstractClientEE@Base 4:5.24.3-deepin.1.9
 _ZN4KWin15UserActionsMenu11qt_metacallEN11QMetaObject4CallEiPPv@Base 4:5.24.3-deepin.1.9
 _ZN4KWin15UserActionsMenu11qt_metacastEPKc@Base 4:5.24.3-deepin.1.9
 _ZN4KWin15UserActionsMenu12helperDialogERK7QStringPNS_14AbstractClientE@Base 4:5.24.3-deepin.1.9
 _ZN4KWin15UserActionsMenu15initScreenPopupEv@Base 4:5.24.3-deepin.1.9
 _ZN4KWin15UserActionsMenu15menuAboutToShowEv@Base 4:5.24.3-deepin.1.9
 _ZN4KWin15UserActionsMenu16initDesktopPopupEv@Base 4:5.24.3-deepin.1.9
 _ZN4KWin15UserActionsMenu16staticMetaObjectE@Base 4:5.24.3-deepin.1.9
 _ZN4KWin15UserActionsMenu17initActivityPopupEv@Base 4:5.24.3-deepin.1.9
 _ZN4KWin15UserActionsMenu19slotWindowOperationEP7QAction@Base 4:5.24.3-deepin.1.9
 _ZN4KWin15UserActionsMenu20showHideActivityMenuEv@Base 4:5.24.3-deepin.1.9
 _ZN4KWin15UserActionsMenu20slotToggleOnActivityEP7QAction@Base 4:5.24.3-deepin.1.9
 _ZN4KWin15UserActionsMenu22screenPopupAboutToShowEv@Base 4:5.24.3-deepin.1.9
 _ZN4KWin15UserActionsMenu23desktopPopupAboutToShowEv@Base 4:5.24.3-deepin.1.9
 _ZN4KWin15UserActionsMenu24activityPopupAboutToShowEv@Base 4:5.24.3-deepin.1.9
 _ZN4KWin15UserActionsMenu32multipleDesktopsPopupAboutToShowEv@Base 4:5.24.3-deepin.1.9
 _ZN4KWin15UserActionsMenu4initEv@Base 4:5.24.3-deepin.1.9
 _ZN4KWin15UserActionsMenu4showERK5QRectPNS_14AbstractClientE@Base 4:5.24.3-deepin.1.9
 _ZN4KWin15UserActionsMenu5closeEv@Base 4:5.24.3-deepin.1.9
 _ZN4KWin15UserActionsMenu7discardEv@Base 4:5.24.3-deepin.1.9
 _ZN4KWin15UserActionsMenu9grabInputEv@Base 4:5.24.3-deepin.1.9
 _ZN4KWin15UserActionsMenuC1EP7QObject@Base 4:5.24.3-deepin.1.9
 _ZN4KWin15UserActionsMenuC2EP7QObject@Base 4:5.24.3-deepin.1.9
 _ZN4KWin15UserActionsMenuD0Ev@Base 4:5.24.3-deepin.1.9
 _ZN4KWin15UserActionsMenuD1Ev@Base 4:5.24.3-deepin.1.9
 _ZN4KWin15UserActionsMenuD2Ev@Base 4:5.24.3-deepin.1.9
 _ZN4KWin15ungrabXKeyboardEv@Base 4:5.24.3-deepin.1.9
 _ZN4KWin16InputEventFilter10wheelEventEP11QWheelEvent@Base 4:5.24.3-deepin.1.9
 _ZN4KWin16InputEventFilter11switchEventEPNS_11SwitchEventE@Base 4:5.24.3-deepin.1.9
 _ZN4KWin16InputEventFilter11touchMotionEiRK7QPointFj@Base 4:5.24.3-deepin.1.9
 _ZN4KWin16InputEventFilter12pointerEventEP11QMouseEventj@Base 4:5.24.3-deepin.1.9
 _ZN4KWin16InputEventFilter14holdGestureEndEj@Base 4:5.24.3-deepin.1.9
 _ZN4KWin16InputEventFilter15pinchGestureEndEj@Base 4:5.24.3-deepin.1.9
 _ZN4KWin16InputEventFilter15swipeGestureEndEj@Base 4:5.24.3-deepin.1.9
 _ZN4KWin16InputEventFilter15tabletToolEventEPNS_11TabletEventE@Base 4:5.24.3-deepin.1.9
 _ZN4KWin16InputEventFilter16holdGestureBeginEij@Base 4:5.24.3-deepin.1.9
 _ZN4KWin16InputEventFilter17passToInputMethodEP9QKeyEvent@Base 4:5.24.3-deepin.1.9
 _ZN4KWin16InputEventFilter17pinchGestureBeginEij@Base 4:5.24.3-deepin.1.9
 _ZN4KWin16InputEventFilter17swipeGestureBeginEij@Base 4:5.24.3-deepin.1.9
 _ZN4KWin16InputEventFilter18pinchGestureUpdateEddRK6QSizeFj@Base 4:5.24.3-deepin.1.9
 _ZN4KWin16InputEventFilter18swipeGestureUpdateERK6QSizeFj@Base 4:5.24.3-deepin.1.9
 _ZN4KWin16InputEventFilter18tabletPadRingEventEiibRKNS_11TabletPadIdE@Base 4:5.24.3-deepin.1.9
 _ZN4KWin16InputEventFilter19passToWaylandServerEP9QKeyEvent@Base 4:5.24.3-deepin.1.9
 _ZN4KWin16InputEventFilter19tabletPadStripEventEiibRKNS_11TabletPadIdE@Base 4:5.24.3-deepin.1.9
 _ZN4KWin16InputEventFilter20holdGestureCancelledEj@Base 4:5.24.3-deepin.1.9
 _ZN4KWin16InputEventFilter20tabletPadButtonEventEjbRKNS_11TabletPadIdE@Base 4:5.24.3-deepin.1.9
 _ZN4KWin16InputEventFilter21pinchGestureCancelledEj@Base 4:5.24.3-deepin.1.9
 _ZN4KWin16InputEventFilter21swipeGestureCancelledEj@Base 4:5.24.3-deepin.1.9
 _ZN4KWin16InputEventFilter21tabletToolButtonEventEjbRKNS_12TabletToolIdE@Base 4:5.24.3-deepin.1.9
 _ZN4KWin16InputEventFilter7touchUpEij@Base 4:5.24.3-deepin.1.9
 _ZN4KWin16InputEventFilter8keyEventEP9QKeyEvent@Base 4:5.24.3-deepin.1.9
 _ZN4KWin16InputEventFilter9touchDownEiRK7QPointFj@Base 4:5.24.3-deepin.1.9
 _ZN4KWin16InputEventFilterC1Ev@Base 4:5.24.3-deepin.1.9
 _ZN4KWin16InputEventFilterC2Ev@Base 4:5.24.3-deepin.1.9
 _ZN4KWin16InputEventFilterD0Ev@Base 4:5.24.3-deepin.1.9
 _ZN4KWin16InputEventFilterD1Ev@Base 4:5.24.3-deepin.1.9
 _ZN4KWin16InputEventFilterD2Ev@Base 4:5.24.3-deepin.1.9
 _ZN4KWin16InputRedirection10updateLedsE6QFlagsINS_3LEDEE@Base 4:5.24.3-deepin.1.9
 _ZN4KWin16InputRedirection11deviceAddedEPNS_11InputDeviceE@Base 4:5.24.3-deepin.1.9
 _ZN4KWin16InputRedirection11isShortcutsEP9QKeyEvent@Base 4:5.24.3-deepin.1.9
 _ZN4KWin16InputRedirection11qt_metacallEN11QMetaObject4CallEiPPv@Base 4:5.24.3-deepin.1.9
 _ZN4KWin16InputRedirection11qt_metacastEPKc@Base 4:5.24.3-deepin.1.9
 _ZN4KWin16InputRedirection11touchMotionEv@Base 4:5.24.3-deepin.1.9
 _ZN4KWin16InputRedirection11warpPointerERK7QPointF@Base 4:5.24.3-deepin.1.9
 _ZN4KWin16InputRedirection12findToplevelERK6QPoint@Base 4:5.24.3-deepin.1.9
 _ZN4KWin16InputRedirection13deviceRemovedEPNS_11InputDeviceE@Base 4:5.24.3-deepin.1.9
 _ZN4KWin16InputRedirection14setCursorShapeEN2Qt11CursorShapeE@Base 4:5.24.3-deepin.1.9
 _ZN4KWin16InputRedirection14setupWorkspaceEv@Base 4:5.24.3-deepin.1.9
 _ZN4KWin16InputRedirection15addInputBackendEPNS_12InputBackendE@Base 4:5.24.3-deepin.1.9
 _ZN4KWin16InputRedirection15enableTouchpadsEv@Base 4:5.24.3-deepin.1.9
 _ZN4KWin16InputRedirection15hasTouchChangedEb@Base 4:5.24.3-deepin.1.9
 _ZN4KWin16InputRedirection15keyStateChangedEjNS0_16KeyboardKeyStateE@Base 4:5.24.3-deepin.1.9
 _ZN4KWin16InputRedirection15toggleTouchpadsEv@Base 4:5.24.3-deepin.1.9
 _ZN4KWin16InputRedirection16disableTouchpadsEv@Base 4:5.24.3-deepin.1.9
 _ZN4KWin16InputRedirection16registerShortcutERK12QKeySequenceP7QAction@Base 4:5.24.3-deepin.1.9
 _ZN4KWin16InputRedirection16staticMetaObjectE@Base 4:5.24.3-deepin.1.9
 _ZN4KWin16InputRedirection17hasPointerChangedEb@Base 4:5.24.3-deepin.1.9
 _ZN4KWin16InputRedirection17setupInputFiltersEv@Base 4:5.24.3-deepin.1.9
 _ZN4KWin16InputRedirection18hasKeyboardChangedEb@Base 4:5.24.3-deepin.1.9
 _ZN4KWin16InputRedirection18pointerAxisChangedENS0_11PointerAxisEd@Base 4:5.24.3-deepin.1.9
 _ZN4KWin16InputRedirection18setupInputBackendsEv@Base 4:5.24.3-deepin.1.9
 _ZN4KWin16InputRedirection19findManagedToplevelERK6QPoint@Base 4:5.24.3-deepin.1.9
 _ZN4KWin16InputRedirection19hasTabletModeSwitchEv@Base 4:5.24.3-deepin.1.9
 _ZN4KWin16InputRedirection19registerGlobalAccelEP21KGlobalAccelInterface@Base 4:5.24.3-deepin.1.9
 _ZN4KWin16InputRedirection19setLastInputHandlerEP7QObject@Base 4:5.24.3-deepin.1.9
 _ZN4KWin16InputRedirection20globalPointerChangedERK7QPointF@Base 4:5.24.3-deepin.1.9
 _ZN4KWin16InputRedirection20installInputEventSpyEPNS_13InputEventSpyE@Base 4:5.24.3-deepin.1.9
 _ZN4KWin16InputRedirection20registerAxisShortcutE6QFlagsIN2Qt16KeyboardModifierEENS_20PointerAxisDirectionEP7QAction@Base 4:5.24.3-deepin.1.9
 _ZN4KWin16InputRedirection22handleInputDeviceAddedEPNS_11InputDeviceE@Base 4:5.24.3-deepin.1.9
 _ZN4KWin16InputRedirection22setupTouchpadShortcutsEv@Base 4:5.24.3-deepin.1.9
 _ZN4KWin16InputRedirection22uninstallInputEventSpyEPNS_13InputEventSpyE@Base 4:5.24.3-deepin.1.9
 _ZN4KWin16InputRedirection23hasAlphaNumericKeyboardEv@Base 4:5.24.3-deepin.1.9
 _ZN4KWin16InputRedirection23installInputEventFilterEPNS_16InputEventFilterE@Base 4:5.24.3-deepin.1.9
 _ZN4KWin16InputRedirection23prependInputEventFilterEPNS_16InputEventFilterE@Base 4:5.24.3-deepin.1.9
 _ZN4KWin16InputRedirection23registerPointerShortcutE6QFlagsIN2Qt16KeyboardModifierEENS2_11MouseButtonEP7QAction@Base 4:5.24.3-deepin.1.9
 _ZN4KWin16InputRedirection24handleInputConfigChangedERK12KConfigGroup@Base 4:5.24.3-deepin.1.9
 _ZN4KWin16InputRedirection24handleInputDeviceRemovedEPNS_11InputDeviceE@Base 4:5.24.3-deepin.1.9
 _ZN4KWin16InputRedirection24keyboardModifiersChangedE6QFlagsIN2Qt16KeyboardModifierEES4_@Base 4:5.24.3-deepin.1.9
 _ZN4KWin16InputRedirection25pointerButtonStateChangedEjNS0_18PointerButtonStateE@Base 4:5.24.3-deepin.1.9
 _ZN4KWin16InputRedirection25uninstallInputEventFilterEPNS_16InputEventFilterE@Base 4:5.24.3-deepin.1.9
 _ZN4KWin16InputRedirection26hasTabletModeSwitchChangedEb@Base 4:5.24.3-deepin.1.9
 _ZN4KWin16InputRedirection27updateAvailableInputDevicesEv@Base 4:5.24.3-deepin.1.9
 _ZN4KWin16InputRedirection29registerTouchpadSwipeShortcutENS_14SwipeDirectionEP7QAction@Base 4:5.24.3-deepin.1.9
 _ZN4KWin16InputRedirection30hasAlphaNumericKeyboardChangedEb@Base 4:5.24.3-deepin.1.9
 _ZN4KWin16InputRedirection31startInteractiveWindowSelectionESt8functionIFvPNS_8ToplevelEEERK10QByteArray@Base 4:5.24.3-deepin.1.9
 _ZN4KWin16InputRedirection33startInteractivePositionSelectionESt8functionIFvRK6QPointEE@Base 4:5.24.3-deepin.1.9
 _ZN4KWin16InputRedirection37registerRealtimeTouchpadSwipeShortcutENS_14SwipeDirectionEP7QActionSt8functionIFvdEE@Base 4:5.24.3-deepin.1.9
 _ZN4KWin16InputRedirection4initEv@Base 4:5.24.3-deepin.1.9
 _ZN4KWin16InputRedirection6createEP7QObject@Base 4:5.24.3-deepin.1.9
 _ZN4KWin16InputRedirection6s_selfE@Base 4:5.24.3-deepin.1.9
 _ZN4KWin16InputRedirection8touchEndEv@Base 4:5.24.3-deepin.1.9
 _ZN4KWin16InputRedirection9touchDownEv@Base 4:5.24.3-deepin.1.9
 _ZN4KWin16InputRedirectionC1EP7QObject@Base 4:5.24.3-deepin.1.9
 _ZN4KWin16InputRedirectionC2EP7QObject@Base 4:5.24.3-deepin.1.9
 _ZN4KWin16InputRedirectionD0Ev@Base 4:5.24.3-deepin.1.9
 _ZN4KWin16InputRedirectionD1Ev@Base 4:5.24.3-deepin.1.9
 _ZN4KWin16InputRedirectionD2Ev@Base 4:5.24.3-deepin.1.9
 _ZN4KWin16SurfacePixmapX1111qt_metacallEN11QMetaObject4CallEiPPv@Base 4:5.24.3-deepin.1.9
 _ZN4KWin16SurfacePixmapX1111qt_metacastEPKc@Base 4:5.24.3-deepin.1.9
 _ZN4KWin16SurfacePixmapX1116staticMetaObjectE@Base 4:5.24.3-deepin.1.9
 _ZN4KWin16SurfacePixmapX116createEv@Base 4:5.24.3-deepin.1.9
 _ZN4KWin16SurfacePixmapX11C1EPNS_14SurfaceItemX11EP7QObject@Base 4:5.24.3-deepin.1.9
 _ZN4KWin16SurfacePixmapX11C2EPNS_14SurfaceItemX11EP7QObject@Base 4:5.24.3-deepin.1.9
 _ZN4KWin16SurfacePixmapX11D0Ev@Base 4:5.24.3-deepin.1.9
 _ZN4KWin16SurfacePixmapX11D1Ev@Base 4:5.24.3-deepin.1.9
 _ZN4KWin16SurfacePixmapX11D2Ev@Base 4:5.24.3-deepin.1.9
 _ZN4KWin16staticMetaObjectE@Base 4:5.24.3-deepin.1.9
 _ZN4KWin17DebugConsoleModel11qt_metacallEN11QMetaObject4CallEiPPv@Base 4:5.24.3-deepin.1.9
 _ZN4KWin17DebugConsoleModel11qt_metacastEPKc@Base 4:5.24.3-deepin.1.9
 _ZN4KWin17DebugConsoleModel16staticMetaObjectE@Base 4:5.24.3-deepin.1.9
 _ZN4KWin17DebugConsoleModel17handleClientAddedEPNS_14AbstractClientE@Base 4:5.24.3-deepin.1.9
 _ZN4KWin17DebugConsoleModel19handleClientRemovedEPNS_14AbstractClientE@Base 4:5.24.3-deepin.1.9
 _ZN4KWin17DebugConsoleModel3addINS_13WaylandClientEEEviR7QVectorIPT_ES5_@Base 4:5.24.3-deepin.1.9
 _ZN4KWin17DebugConsoleModel6removeINS_13WaylandClientEEEviR7QVectorIPT_ES5_@Base 4:5.24.3-deepin.1.9
 _ZN4KWin17DebugConsoleModel6removeINS_14InternalClientEEEviR7QVectorIPT_ES5_@Base 4:5.24.3-deepin.1.9
 _ZN4KWin17DebugConsoleModel6removeINS_9UnmanagedEEEviR7QVectorIPT_ES5_@Base 4:5.24.3-deepin.1.9
 _ZN4KWin17DebugConsoleModel6removeINS_9X11ClientEEEviR7QVectorIPT_ES5_@Base 4:5.24.3-deepin.1.9
 _ZN4KWin17DebugConsoleModelC1EP7QObject@Base 4:5.24.3-deepin.1.9
 _ZN4KWin17DebugConsoleModelC2EP7QObject@Base 4:5.24.3-deepin.1.9
 _ZN4KWin17DebugConsoleModelD0Ev@Base 4:5.24.3-deepin.1.9
 _ZN4KWin17DebugConsoleModelD1Ev@Base 4:5.24.3-deepin.1.9
 _ZN4KWin17DebugConsoleModelD2Ev@Base 4:5.24.3-deepin.1.9
 _ZN4KWin17GestureRecognizer11qt_metacallEN11QMetaObject4CallEiPPv@Base 4:5.24.3-deepin.1.9
 _ZN4KWin17GestureRecognizer11qt_metacastEPKc@Base 4:5.24.3-deepin.1.9
 _ZN4KWin17GestureRecognizer15endSwipeGestureEv@Base 4:5.24.3-deepin.1.9
 _ZN4KWin17GestureRecognizer15registerGestureEPNS_7GestureE@Base 4:5.24.3-deepin.1.9
 _ZN4KWin17GestureRecognizer16staticMetaObjectE@Base 4:5.24.3-deepin.1.9
 _ZN4KWin17GestureRecognizer17startSwipeGestureEjRK7QPointFNS0_21StartPositionBehaviorE@Base 4:5.24.3-deepin.1.9
 _ZN4KWin17GestureRecognizer17unregisterGestureEPNS_7GestureE@Base 4:5.24.3-deepin.1.9
 _ZN4KWin17GestureRecognizer18cancelSwipeGestureEv@Base 4:5.24.3-deepin.1.9
 _ZN4KWin17GestureRecognizer18updateSwipeGestureERK6QSizeF@Base 4:5.24.3-deepin.1.9
 _ZN4KWin17GestureRecognizer25cancelActiveSwipeGesturesEv@Base 4:5.24.3-deepin.1.9
 _ZN4KWin17GestureRecognizerC1EP7QObject@Base 4:5.24.3-deepin.1.9
 _ZN4KWin17GestureRecognizerC2EP7QObject@Base 4:5.24.3-deepin.1.9
 _ZN4KWin17GestureRecognizerD0Ev@Base 4:5.24.3-deepin.1.9
 _ZN4KWin17GestureRecognizerD1Ev@Base 4:5.24.3-deepin.1.9
 _ZN4KWin17GestureRecognizerD2Ev@Base 4:5.24.3-deepin.1.9
 _ZN4KWin17RenderLoopPrivate10invalidateEv@Base 4:5.24.3-deepin.1.9
 _ZN4KWin17RenderLoopPrivate15scheduleRepaintEv@Base 4:5.24.3-deepin.1.9
 _ZN4KWin17RenderLoopPrivate17notifyFrameFailedEv@Base 4:5.24.3-deepin.1.9
 _ZN4KWin17RenderLoopPrivate20delayScheduleRepaintEv@Base 4:5.24.3-deepin.1.9
 _ZN4KWin17RenderLoopPrivate20maybeScheduleRepaintEv@Base 4:5.24.3-deepin.1.9
 _ZN4KWin17RenderLoopPrivate20notifyFrameCompletedENSt6chrono8durationIlSt5ratioILl1ELl1000000000EEEE@Base 4:5.24.3-deepin.1.9
 _ZN4KWin17RenderLoopPrivate3getEPNS_10RenderLoopE@Base 4:5.24.3-deepin.1.9
 _ZN4KWin17RenderLoopPrivate8dispatchEv@Base 4:5.24.3-deepin.1.9
 _ZN4KWin17RenderLoopPrivateC1EPNS_10RenderLoopE@Base 4:5.24.3-deepin.1.9
 _ZN4KWin17RenderLoopPrivateC2EPNS_10RenderLoopE@Base 4:5.24.3-deepin.1.9
 _ZN4KWin17WaylandCompositor11qt_metacallEN11QMetaObject4CallEiPPv@Base 4:5.24.3-deepin.1.9
 _ZN4KWin17WaylandCompositor11qt_metacastEPKc@Base 4:5.24.3-deepin.1.9
 _ZN4KWin17WaylandCompositor16staticMetaObjectE@Base 4:5.24.3-deepin.1.9
 _ZN4KWin17WaylandCompositor17toggleCompositingEv@Base 4:5.24.3-deepin.1.9
 _ZN4KWin17WaylandCompositor5startEv@Base 4:5.24.3-deepin.1.9
 _ZN4KWin17WaylandCompositor6createEP7QObject@Base 4:5.24.3-deepin.1.9
 _ZN4KWin17WaylandCompositorC1EP7QObject@Base 4:5.24.3-deepin.1.9
 _ZN4KWin17WaylandCompositorC2EP7QObject@Base 4:5.24.3-deepin.1.9
 _ZN4KWin17WaylandCompositorD0Ev@Base 4:5.24.3-deepin.1.9
 _ZN4KWin17WaylandCompositorD1Ev@Base 4:5.24.3-deepin.1.9
 _ZN4KWin17WaylandCompositorD2Ev@Base 4:5.24.3-deepin.1.9
 _ZN4KWin17WindowItemWayland11qt_metacallEN11QMetaObject4CallEiPPv@Base 4:5.24.3-deepin.1.9
 _ZN4KWin17WindowItemWayland11qt_metacastEPKc@Base 4:5.24.3-deepin.1.9
 _ZN4KWin17WindowItemWayland16staticMetaObjectE@Base 4:5.24.3-deepin.1.9
 _ZN4KWin17WindowItemWaylandC1EPNS_8ToplevelEPNS_4ItemE@Base 4:5.24.3-deepin.1.9
 _ZN4KWin17WindowItemWaylandC2EPNS_8ToplevelEPNS_4ItemE@Base 4:5.24.3-deepin.1.9
 _ZN4KWin17XwaylandInterface11qt_metacallEN11QMetaObject4CallEiPPv@Base 4:5.24.3-deepin.1.9
 _ZN4KWin17XwaylandInterface11qt_metacastEPKc@Base 4:5.24.3-deepin.1.9
 _ZN4KWin17XwaylandInterface16staticMetaObjectE@Base 4:5.24.3-deepin.1.9
 _ZN4KWin17XwaylandInterface4selfEv@Base 4:5.24.3-deepin.1.9
 _ZN4KWin17XwaylandInterfaceC1EP7QObject@Base 4:5.24.3-deepin.1.9
 _ZN4KWin17XwaylandInterfaceC2EP7QObject@Base 4:5.24.3-deepin.1.9
 _ZN4KWin17XwaylandInterfaceD0Ev@Base 4:5.24.3-deepin.1.9
 _ZN4KWin17XwaylandInterfaceD1Ev@Base 4:5.24.3-deepin.1.9
 _ZN4KWin17XwaylandInterfaceD2Ev@Base 4:5.24.3-deepin.1.9
 _ZN4KWin18AbstractEglBackend10initEglAPIEv@Base 4:5.24.3-deepin.1.9
 _ZN4KWin18AbstractEglBackend10initKWinGLEv@Base 4:5.24.3-deepin.1.9
 _ZN4KWin18AbstractEglBackend10setSurfaceERKPv@Base 4:5.24.3-deepin.1.9
 _ZN4KWin18AbstractEglBackend11doneCurrentEv@Base 4:5.24.3-deepin.1.9
 _ZN4KWin18AbstractEglBackend11initWaylandEv@Base 4:5.24.3-deepin.1.9
 _ZN4KWin18AbstractEglBackend11makeCurrentEv@Base 4:5.24.3-deepin.1.9
 _ZN4KWin18AbstractEglBackend11qt_metacallEN11QMetaObject4CallEiPPv@Base 4:5.24.3-deepin.1.9
 _ZN4KWin18AbstractEglBackend11qt_metacastEPKc@Base 4:5.24.3-deepin.1.9
 _ZN4KWin18AbstractEglBackend13createContextEv@Base 4:5.24.3-deepin.1.9
 _ZN4KWin18AbstractEglBackend13initBufferAgeEv@Base 4:5.24.3-deepin.1.9
 _ZN4KWin18AbstractEglBackend13setEglDisplayERKPv@Base 4:5.24.3-deepin.1.9
 _ZN4KWin18AbstractEglBackend15cleanupSurfacesEv@Base 4:5.24.3-deepin.1.9
 _ZN4KWin18AbstractEglBackend16s_primaryBackendE@Base 4:5.24.3-deepin.1.9
 _ZN4KWin18AbstractEglBackend16staticMetaObjectE@Base 4:5.24.3-deepin.1.9
 _ZN4KWin18AbstractEglBackend20initClientExtensionsEv@Base 4:5.24.3-deepin.1.9
 _ZN4KWin18AbstractEglBackend21createContextInternalEPv@Base 4:5.24.3-deepin.1.9
 _ZN4KWin18AbstractEglBackend24ensureGlobalShareContextEv@Base 4:5.24.3-deepin.1.9
 _ZN4KWin18AbstractEglBackend25destroyGlobalShareContextEv@Base 4:5.24.3-deepin.1.9
 _ZN4KWin18AbstractEglBackend7cleanupEv@Base 4:5.24.3-deepin.1.9
 _ZN4KWin18AbstractEglBackend8teardownEv@Base 4:5.24.3-deepin.1.9
 _ZN4KWin18AbstractEglBackend9setConfigERKPv@Base 4:5.24.3-deepin.1.9
 _ZN4KWin18AbstractEglBackendC1Em@Base 4:5.24.3-deepin.1.9
 _ZN4KWin18AbstractEglBackendC2Em@Base 4:5.24.3-deepin.1.9
 _ZN4KWin18AbstractEglBackendD0Ev@Base 4:5.24.3-deepin.1.9
 _ZN4KWin18AbstractEglBackendD1Ev@Base 4:5.24.3-deepin.1.9
 _ZN4KWin18AbstractEglBackendD2Ev@Base 4:5.24.3-deepin.1.9
 _ZN4KWin18DecorationRenderer10invalidateEv@Base 4:5.24.3-deepin.1.9
 _ZN4KWin18DecorationRenderer11qt_metacallEN11QMetaObject4CallEiPPv@Base 4:5.24.3-deepin.1.9
 _ZN4KWin18DecorationRenderer11qt_metacastEPKc@Base 4:5.24.3-deepin.1.9
 _ZN4KWin18DecorationRenderer11resetDamageEv@Base 4:5.24.3-deepin.1.9
 _ZN4KWin18DecorationRenderer13renderToImageERK5QRect@Base 4:5.24.3-deepin.1.9
 _ZN4KWin18DecorationRenderer15renderToPainterEP8QPainterRK5QRect@Base 4:5.24.3-deepin.1.9
 _ZN4KWin18DecorationRenderer16staticMetaObjectE@Base 4:5.24.3-deepin.1.9
 _ZN4KWin18DecorationRenderer19setDevicePixelRatioEd@Base 4:5.24.3-deepin.1.9
 _ZN4KWin18DecorationRenderer7damagedERK7QRegion@Base 4:5.24.3-deepin.1.9
 _ZN4KWin18DecorationRenderer9addDamageERK7QRegion@Base 4:5.24.3-deepin.1.9
 _ZN4KWin18DecorationRendererC1EPNS_10Decoration19DecoratedClientImplE@Base 4:5.24.3-deepin.1.9
 _ZN4KWin18DecorationRendererC2EPNS_10Decoration19DecoratedClientImplE@Base 4:5.24.3-deepin.1.9
 _ZN4KWin18EffectsHandlerImpl10addRepaintERK5QRect@Base 4:5.24.3-deepin.1.9
 _ZN4KWin18EffectsHandlerImpl10addRepaintERK7QRegion@Base 4:5.24.3-deepin.1.9
 _ZN4KWin18EffectsHandlerImpl10addRepaintEiiii@Base 4:5.24.3-deepin.1.9
 _ZN4KWin18EffectsHandlerImpl10drawWindowEPNS_12EffectWindowEiRK7QRegionRNS_15WindowPaintDataE@Base 4:5.24.3-deepin.1.9
 _ZN4KWin18EffectsHandlerImpl10hideCursorEv@Base 4:5.24.3-deepin.1.9
 _ZN4KWin18EffectsHandlerImpl10kwinOptionENS_10KWinOptionE@Base 4:5.24.3-deepin.1.9
 _ZN4KWin18EffectsHandlerImpl10loadEffectERK7QString@Base 4:5.24.3-deepin.1.9
 _ZN4KWin18EffectsHandlerImpl10moveWindowEPNS_12EffectWindowERK6QPointbd@Base 4:5.24.3-deepin.1.9
 _ZN4KWin18EffectsHandlerImpl10showCursorEv@Base 4:5.24.3-deepin.1.9
 _ZN4KWin18EffectsHandlerImpl10startPaintEv@Base 4:5.24.3-deepin.1.9
 _ZN4KWin18EffectsHandlerImpl11closeTabBoxEv@Base 4:5.24.3-deepin.1.9
 _ZN4KWin18EffectsHandlerImpl11isShortcutsEP9QKeyEvent@Base 4:5.24.3-deepin.1.9
 _ZN4KWin18EffectsHandlerImpl11paintScreenEiRK7QRegionRNS_15ScreenPaintDataE@Base 4:5.24.3-deepin.1.9
 _ZN4KWin18EffectsHandlerImpl11paintWindowEPNS_12EffectWindowEiRK7QRegionRNS_15WindowPaintDataE@Base 4:5.24.3-deepin.1.9
 _ZN4KWin18EffectsHandlerImpl11qt_metacallEN11QMetaObject4CallEiPPv@Base 4:5.24.3-deepin.1.9
 _ZN4KWin18EffectsHandlerImpl11qt_metacastEPKc@Base 4:5.24.3-deepin.1.9
 _ZN4KWin18EffectsHandlerImpl11reconfigureEv@Base 4:5.24.3-deepin.1.9
 _ZN4KWin18EffectsHandlerImpl11requestLockEv@Base 4:5.24.3-deepin.1.9
 _ZN4KWin18EffectsHandlerImpl11sendPointerEN2Qt11MouseButtonE@Base 4:5.24.3-deepin.1.9
 _ZN4KWin18EffectsHandlerImpl11setShowLineEb5QRect@Base 4:5.24.3-deepin.1.9
 _ZN4KWin18EffectsHandlerImpl11touchMotionEiRK7QPointFj@Base 4:5.24.3-deepin.1.9
 _ZN4KWin18EffectsHandlerImpl11unrefTabBoxEv@Base 4:5.24.3-deepin.1.9
 _ZN4KWin18EffectsHandlerImpl12defineCursorEN2Qt11CursorShapeE@Base 4:5.24.3-deepin.1.9
 _ZN4KWin18EffectsHandlerImpl12enableEffectERK7QStringb@Base 4:5.24.3-deepin.1.9
 _ZN4KWin18EffectsHandlerImpl12getSplitAreaEi5QRectS1_7QStringib@Base 4:5.24.3-deepin.1.9
 _ZN4KWin18EffectsHandlerImpl12getSplitListER4QSetIPNS_12EffectWindowEERii7QString@Base 4:5.24.3-deepin.1.9
 _ZN4KWin18EffectsHandlerImpl12getSplitModeEi7QString@Base 4:5.24.3-deepin.1.9
 _ZN4KWin18EffectsHandlerImpl12grabKeyboardEPNS_6EffectE@Base 4:5.24.3-deepin.1.9
 _ZN4KWin18EffectsHandlerImpl12paintDesktopEii7QRegionRNS_15ScreenPaintDataE@Base 4:5.24.3-deepin.1.9
 _ZN4KWin18EffectsHandlerImpl12reloadEffectEPNS_6EffectE@Base 4:5.24.3-deepin.1.9
 _ZN4KWin18EffectsHandlerImpl12renderScreenEPNS_12EffectScreenE@Base 4:5.24.3-deepin.1.9
 _ZN4KWin18EffectsHandlerImpl12scenePainterEv@Base 4:5.24.3-deepin.1.9
 _ZN4KWin18EffectsHandlerImpl12setCursorPosERK6QPoint@Base 4:5.24.3-deepin.1.9
 _ZN4KWin18EffectsHandlerImpl12setKeepAboveEPNS_12EffectWindowEb@Base 4:5.24.3-deepin.1.9
 _ZN4KWin18EffectsHandlerImpl12slotTabAddedEPNS_12EffectWindowES2_@Base 4:5.24.3-deepin.1.9
 _ZN4KWin18EffectsHandlerImpl12toggleEffectERK7QString@Base 4:5.24.3-deepin.1.9
 _ZN4KWin18EffectsHandlerImpl12unloadEffectERK7QString@Base 4:5.24.3-deepin.1.9
 _ZN4KWin18EffectsHandlerImpl13connectNotifyERK11QMetaMethod@Base 4:5.24.3-deepin.1.9
 _ZN4KWin18EffectsHandlerImpl13destroyEffectEPNS_6EffectE@Base 4:5.24.3-deepin.1.9
 _ZN4KWin18EffectsHandlerImpl14activateWindowEPNS_12EffectWindowE@Base 4:5.24.3-deepin.1.9
 _ZN4KWin18EffectsHandlerImpl14addRepaintFullEv@Base 4:5.24.3-deepin.1.9
 _ZN4KWin18EffectsHandlerImpl14doGrabKeyboardEv@Base 4:5.24.3-deepin.1.9
 _ZN4KWin18EffectsHandlerImpl14effectsChangedEv@Base 4:5.24.3-deepin.1.9
 _ZN4KWin18EffectsHandlerImpl14getActiveColorEv@Base 4:5.24.3-deepin.1.9
 _ZN4KWin18EffectsHandlerImpl14getOutlineRectE7QStringR5QRectS3_@Base 4:5.24.3-deepin.1.9
 _ZN4KWin18EffectsHandlerImpl14isTransientWinEPNS_12EffectWindowE@Base 4:5.24.3-deepin.1.9
 _ZN4KWin18EffectsHandlerImpl14prePaintScreenERNS_18ScreenPrePaintDataENSt6chrono8durationIlSt5ratioILl1ELl1000EEEE@Base 4:5.24.3-deepin.1.9
 _ZN4KWin18EffectsHandlerImpl14prePaintWindowEPNS_12EffectWindowERNS_18WindowPrePaintDataENSt6chrono8durationIlSt5ratioILl1ELl1000EEEE@Base 4:5.24.3-deepin.1.9
 _ZN4KWin18EffectsHandlerImpl14setSplitWindowEPNS_12EffectWindowEib@Base 4:5.24.3-deepin.1.9
 _ZN4KWin18EffectsHandlerImpl14slotTabRemovedEPNS_12EffectWindowES2_@Base 4:5.24.3-deepin.1.9
 _ZN4KWin18EffectsHandlerImpl14ungrabKeyboardEv@Base 4:5.24.3-deepin.1.9
 _ZN4KWin18EffectsHandlerImpl14windowToScreenEPNS_12EffectWindowEPNS_12EffectScreenE@Base 4:5.24.3-deepin.1.9
 _ZN4KWin18EffectsHandlerImpl15changeBlurStateEb@Base 4:5.24.3-deepin.1.9
 _ZN4KWin18EffectsHandlerImpl15getChildWinListEPNS_12EffectWindowE@Base 4:5.24.3-deepin.1.9
 _ZN4KWin18EffectsHandlerImpl15getOutlineStateEv@Base 4:5.24.3-deepin.1.9
 _ZN4KWin18EffectsHandlerImpl15postPaintScreenEv@Base 4:5.24.3-deepin.1.9
 _ZN4KWin18EffectsHandlerImpl15postPaintWindowEPNS_12EffectWindowE@Base 4:5.24.3-deepin.1.9
 _ZN4KWin18EffectsHandlerImpl15setTabBoxWindowEPNS_12EffectWindowE@Base 4:5.24.3-deepin.1.9
 _ZN4KWin18EffectsHandlerImpl15slotClientShownEPNS_8ToplevelE@Base 4:5.24.3-deepin.1.9
 _ZN4KWin18EffectsHandlerImpl15windowToDesktopEPNS_12EffectWindowEi@Base 4:5.24.3-deepin.1.9
 _ZN4KWin18EffectsHandlerImpl16disconnectNotifyERK11QMetaMethod@Base 4:5.24.3-deepin.1.9
 _ZN4KWin18EffectsHandlerImpl16doUngrabKeyboardEv@Base 4:5.24.3-deepin.1.9
 _ZN4KWin18EffectsHandlerImpl16highlightWindowsERK7QVectorIPNS_12EffectWindowEE@Base 4:5.24.3-deepin.1.9
 _ZN4KWin18EffectsHandlerImpl16paintEffectFrameEPNS_11EffectFrameERK7QRegiondd@Base 4:5.24.3-deepin.1.9
 _ZN4KWin18EffectsHandlerImpl16setTabBoxDesktopEi@Base 4:5.24.3-deepin.1.9
 _ZN4KWin18EffectsHandlerImpl16slotWindowClosedEPNS_8ToplevelEPNS_7DeletedE@Base 4:5.24.3-deepin.1.9
 _ZN4KWin18EffectsHandlerImpl16staticMetaObjectE@Base 4:5.24.3-deepin.1.9
 _ZN4KWin18EffectsHandlerImpl16stopMousePollingEv@Base 4:5.24.3-deepin.1.9
 _ZN4KWin18EffectsHandlerImpl16unloadAllEffectsEv@Base 4:5.24.3-deepin.1.9
 _ZN4KWin18EffectsHandlerImpl16windowToDesktopsEPNS_12EffectWindowERK7QVectorIjE@Base 4:5.24.3-deepin.1.9
 _ZN4KWin18EffectsHandlerImpl17getStockSplitListER4QSetIPNS_12EffectWindowEEi7QString@Base 4:5.24.3-deepin.1.9
 _ZN4KWin18EffectsHandlerImpl17isEffectSupportedERK7QString@Base 4:5.24.3-deepin.1.9
 _ZN4KWin18EffectsHandlerImpl17raiseActiveWindowEi7QString@Base 4:5.24.3-deepin.1.9
 _ZN4KWin18EffectsHandlerImpl17reconfigureEffectERK7QString@Base 4:5.24.3-deepin.1.9
 _ZN4KWin18EffectsHandlerImpl17setCurrentDesktopEi@Base 4:5.24.3-deepin.1.9
 _ZN4KWin18EffectsHandlerImpl17setElevatedWindowEPNS_12EffectWindowEb@Base 4:5.24.3-deepin.1.9
 _ZN4KWin18EffectsHandlerImpl17setShowingDesktopEb@Base 4:5.24.3-deepin.1.9
 _ZN4KWin18EffectsHandlerImpl17slotOutputEnabledEPNS_14AbstractOutputE@Base 4:5.24.3-deepin.1.9
 _ZN4KWin18EffectsHandlerImpl17slotWindowDamagedEPNS_8ToplevelERK7QRegion@Base 4:5.24.3-deepin.1.9
 _ZN4KWin18EffectsHandlerImpl17startMousePollingEv@Base 4:5.24.3-deepin.1.9
 _ZN4KWin18EffectsHandlerImpl18getActiveSplitListER4QSetIPNS_12EffectWindowEEi7QString@Base 4:5.24.3-deepin.1.9
 _ZN4KWin18EffectsHandlerImpl18getScreenWithSplitEv@Base 4:5.24.3-deepin.1.9
 _ZN4KWin18EffectsHandlerImpl18setSplitOutlinePosEib@Base 4:5.24.3-deepin.1.9
 _ZN4KWin18EffectsHandlerImpl18slotOpacityChangedEPNS_8ToplevelEd@Base 4:5.24.3-deepin.1.9
 _ZN4KWin18EffectsHandlerImpl18slotOutputDisabledEPNS_14AbstractOutputE@Base 4:5.24.3-deepin.1.9
 _ZN4KWin18EffectsHandlerImpl18slotUnmanagedShownEPNS_8ToplevelE@Base 4:5.24.3-deepin.1.9
 _ZN4KWin18EffectsHandlerImpl19areEffectsSupportedERK11QStringList@Base 4:5.24.3-deepin.1.9
 _ZN4KWin18EffectsHandlerImpl19hideOnScreenMessageE6QFlagsINS_14EffectsHandler23OnScreenMessageHideFlagEE@Base 4:5.24.3-deepin.1.9
 _ZN4KWin18EffectsHandlerImpl19registerTouchBorderENS_14ElectricBorderEP7QAction@Base 4:5.24.3-deepin.1.9
 _ZN4KWin18EffectsHandlerImpl19setNumberOfDesktopsEi@Base 4:5.24.3-deepin.1.9
 _ZN4KWin18EffectsHandlerImpl19showOnScreenMessageERK7QStringS3_@Base 4:5.24.3-deepin.1.9
 _ZN4KWin18EffectsHandlerImpl19slotClientMaximizedEPNS_14AbstractClientENS_12MaximizeModeE@Base 4:5.24.3-deepin.1.9
 _ZN4KWin18EffectsHandlerImpl20grabbedKeyboardEventEP9QKeyEvent@Base 4:5.24.3-deepin.1.9
 _ZN4KWin18EffectsHandlerImpl20isActiveMultitaskingEv@Base 4:5.24.3-deepin.1.9
 _ZN4KWin18EffectsHandlerImpl20registerAxisShortcutE6QFlagsIN2Qt16KeyboardModifierEENS_20PointerAxisDirectionEP7QAction@Base 4:5.24.3-deepin.1.9
 _ZN4KWin18EffectsHandlerImpl20registerPropertyTypeElb@Base 4:5.24.3-deepin.1.9
 _ZN4KWin18EffectsHandlerImpl20resetSplitOutlinePosE7QStringi@Base 4:5.24.3-deepin.1.9
 _ZN4KWin18EffectsHandlerImpl20setPreviewWindowListE5QListIPNS_12EffectWindowEE@Base 4:5.24.3-deepin.1.9
 _ZN4KWin18EffectsHandlerImpl20switchSplitWorkspaceEii@Base 4:5.24.3-deepin.1.9
 _ZN4KWin18EffectsHandlerImpl21checkInputWindowEventEP11QMouseEvent@Base 4:5.24.3-deepin.1.9
 _ZN4KWin18EffectsHandlerImpl21checkInputWindowEventEP11QWheelEvent@Base 4:5.24.3-deepin.1.9
 _ZN4KWin18EffectsHandlerImpl21removeSupportPropertyERK10QByteArrayPNS_6EffectE@Base 4:5.24.3-deepin.1.9
 _ZN4KWin18EffectsHandlerImpl21reserveElectricBorderENS_14ElectricBorderEPNS_6EffectE@Base 4:5.24.3-deepin.1.9
 _ZN4KWin18EffectsHandlerImpl21setActiveMultitaskingEb@Base 4:5.24.3-deepin.1.9
 _ZN4KWin18EffectsHandlerImpl21stopMouseInterceptionEPNS_6EffectE@Base 4:5.24.3-deepin.1.9
 _ZN4KWin18EffectsHandlerImpl21unregisterTouchBorderENS_14ElectricBorderEP7QAction@Base 4:5.24.3-deepin.1.9
 _ZN4KWin18EffectsHandlerImpl22registerGlobalShortcutERK12QKeySequenceP7QAction@Base 4:5.24.3-deepin.1.9
 _ZN4KWin18EffectsHandlerImpl22setupClientConnectionsEPNS_14AbstractClientE@Base 4:5.24.3-deepin.1.9
 _ZN4KWin18EffectsHandlerImpl22startMouseInterceptionEPNS_6EffectEN2Qt11CursorShapeE@Base 4:5.24.3-deepin.1.9
 _ZN4KWin18EffectsHandlerImpl23announceSupportPropertyERK10QByteArrayPNS_6EffectE@Base 4:5.24.3-deepin.1.9
 _ZN4KWin18EffectsHandlerImpl23checkWindowAllowToSplitEPNS_12EffectWindowE@Base 4:5.24.3-deepin.1.9
 _ZN4KWin18EffectsHandlerImpl23doStopMouseInterceptionEv@Base 4:5.24.3-deepin.1.9
 _ZN4KWin18EffectsHandlerImpl23registerPointerShortcutE6QFlagsIN2Qt16KeyboardModifierEENS2_11MouseButtonEP7QAction@Base 4:5.24.3-deepin.1.9
 _ZN4KWin18EffectsHandlerImpl23unreserveElectricBorderENS_14ElectricBorderEPNS_6EffectE@Base 4:5.24.3-deepin.1.9
 _ZN4KWin18EffectsHandlerImpl24checkInputWindowStackingEv@Base 4:5.24.3-deepin.1.9
 _ZN4KWin18EffectsHandlerImpl24doStartMouseInterceptionEN2Qt11CursorShapeE@Base 4:5.24.3-deepin.1.9
 _ZN4KWin18EffectsHandlerImpl24doneOpenGLContextCurrentEv@Base 4:5.24.3-deepin.1.9
 _ZN4KWin18EffectsHandlerImpl24getCurrentPaintingScreenEv@Base 4:5.24.3-deepin.1.9
 _ZN4KWin18EffectsHandlerImpl24makeOpenGLContextCurrentEv@Base 4:5.24.3-deepin.1.9
 _ZN4KWin18EffectsHandlerImpl24slotFrameGeometryChangedEPNS_8ToplevelERK5QRect@Base 4:5.24.3-deepin.1.9
 _ZN4KWin18EffectsHandlerImpl24slotGeometryShapeChangedEPNS_8ToplevelERK5QRect@Base 4:5.24.3-deepin.1.9
 _ZN4KWin18EffectsHandlerImpl25setActiveFullScreenEffectEPNS_6EffectE@Base 4:5.24.3-deepin.1.9
 _ZN4KWin18EffectsHandlerImpl25setupUnmanagedConnectionsEPNS_9UnmanagedE@Base 4:5.24.3-deepin.1.9
 _ZN4KWin18EffectsHandlerImpl25slotClientModalityChangedEv@Base 4:5.24.3-deepin.1.9
 _ZN4KWin18EffectsHandlerImpl26doCheckInputWindowStackingEv@Base 4:5.24.3-deepin.1.9
 _ZN4KWin18EffectsHandlerImpl27slotCurrentTabAboutToChangeEPNS_12EffectWindowES2_@Base 4:5.24.3-deepin.1.9
 _ZN4KWin18EffectsHandlerImpl29findSplitGroupSecondaryClientEi7QString@Base 4:5.24.3-deepin.1.9
 _ZN4KWin18EffectsHandlerImpl29registerTouchpadSwipeShortcutENS_14SwipeDirectionEP7QAction@Base 4:5.24.3-deepin.1.9
 _ZN4KWin18EffectsHandlerImpl31startInteractiveWindowSelectionESt8functionIFvPNS_12EffectWindowEEE@Base 4:5.24.3-deepin.1.9
 _ZN4KWin18EffectsHandlerImpl33startInteractivePositionSelectionESt8functionIFvRK6QPointEE@Base 4:5.24.3-deepin.1.9
 _ZN4KWin18EffectsHandlerImpl37registerRealtimeTouchpadSwipeShortcutENS_14SwipeDirectionEP7QActionSt8functionIFvdEE@Base 4:5.24.3-deepin.1.9
 _ZN4KWin18EffectsHandlerImpl7touchUpEij@Base 4:5.24.3-deepin.1.9
 _ZN4KWin18EffectsHandlerImpl8getProxyE7QString@Base 4:5.24.3-deepin.1.9
 _ZN4KWin18EffectsHandlerImpl8providesENS_6Effect7FeatureE@Base 4:5.24.3-deepin.1.9
 _ZN4KWin18EffectsHandlerImpl9refTabBoxEv@Base 4:5.24.3-deepin.1.9
 _ZN4KWin18EffectsHandlerImpl9touchDownEiRK7QPointFj@Base 4:5.24.3-deepin.1.9
 _ZN4KWin18EffectsHandlerImplC1EPNS_10CompositorEPNS_5SceneE@Base 4:5.24.3-deepin.1.9
 _ZN4KWin18EffectsHandlerImplC2EPNS_10CompositorEPNS_5SceneE@Base 4:5.24.3-deepin.1.9
 _ZN4KWin18EffectsHandlerImplD0Ev@Base 4:5.24.3-deepin.1.9
 _ZN4KWin18EffectsHandlerImplD1Ev@Base 4:5.24.3-deepin.1.9
 _ZN4KWin18EffectsHandlerImplD2Ev@Base 4:5.24.3-deepin.1.9
 _ZN4KWin18InputDeviceHandler11qt_metacallEN11QMetaObject4CallEiPPv@Base 4:5.24.3-deepin.1.9
 _ZN4KWin18InputDeviceHandler11qt_metacastEPKc@Base 4:5.24.3-deepin.1.9
 _ZN4KWin18InputDeviceHandler11updateFocusEv@Base 4:5.24.3-deepin.1.9
 _ZN4KWin18InputDeviceHandler13setDecorationEPNS_10Decoration19DecoratedClientImplE@Base 4:5.24.3-deepin.1.9
 _ZN4KWin18InputDeviceHandler16staticMetaObjectE@Base 4:5.24.3-deepin.1.9
 _ZN4KWin18InputDeviceHandler16updateDecorationEv@Base 4:5.24.3-deepin.1.9
 _ZN4KWin18InputDeviceHandler17decorationChangedEv@Base 4:5.24.3-deepin.1.9
 _ZN4KWin18InputDeviceHandler4initEv@Base 4:5.24.3-deepin.1.9
 _ZN4KWin18InputDeviceHandler6updateEv@Base 4:5.24.3-deepin.1.9
 _ZN4KWin18InputDeviceHandler8setFocusEPNS_8ToplevelE@Base 4:5.24.3-deepin.1.9
 _ZN4KWin18InputDeviceHandler8setHoverEPNS_8ToplevelE@Base 4:5.24.3-deepin.1.9
 _ZN4KWin18InputDeviceHandlerC1EPNS_16InputRedirectionE@Base 4:5.24.3-deepin.1.9
 _ZN4KWin18InputDeviceHandlerC2EPNS_16InputRedirectionE@Base 4:5.24.3-deepin.1.9
 _ZN4KWin18InputDeviceHandlerD0Ev@Base 4:5.24.3-deepin.1.9
 _ZN4KWin18InputDeviceHandlerD1Ev@Base 4:5.24.3-deepin.1.9
 _ZN4KWin18InputDeviceHandlerD2Ev@Base 4:5.24.3-deepin.1.9
 _ZN4KWin18SurfaceItemWayland11qt_metacallEN11QMetaObject4CallEiPPv@Base 4:5.24.3-deepin.1.9
 _ZN4KWin18SurfaceItemWayland11qt_metacastEPKc@Base 4:5.24.3-deepin.1.9
 _ZN4KWin18SurfaceItemWayland12createPixmapEv@Base 4:5.24.3-deepin.1.9
 _ZN4KWin18SurfaceItemWayland16staticMetaObjectE@Base 4:5.24.3-deepin.1.9
 _ZN4KWin18SurfaceItemWayland22handleSurfaceCommittedEv@Base 4:5.24.3-deepin.1.9
 _ZN4KWin18SurfaceItemWayland24handleSurfaceSizeChangedEv@Base 4:5.24.3-deepin.1.9
 _ZN4KWin18SurfaceItemWayland25getOrCreateSubSurfaceItemEPN14KWaylandServer19SubSurfaceInterfaceE@Base 4:5.24.3-deepin.1.9
 _ZN4KWin18SurfaceItemWayland28handleChildSubSurfaceRemovedEPN14KWaylandServer19SubSurfaceInterfaceE@Base 4:5.24.3-deepin.1.9
 _ZN4KWin18SurfaceItemWayland29handleChildSubSurfacesChangedEv@Base 4:5.24.3-deepin.1.9
 _ZN4KWin18SurfaceItemWayland29handleSubSurfaceMappedChangedEv@Base 4:5.24.3-deepin.1.9
 _ZN4KWin18SurfaceItemWayland31handleSubSurfacePositionChangedEv@Base 4:5.24.3-deepin.1.9
 _ZN4KWin18SurfaceItemWayland34handleSurfaceToBufferMatrixChangedEv@Base 4:5.24.3-deepin.1.9
 _ZN4KWin18SurfaceItemWaylandC1EPN14KWaylandServer16SurfaceInterfaceEPNS_8ToplevelEPNS_4ItemE@Base 4:5.24.3-deepin.1.9
 _ZN4KWin18SurfaceItemWaylandC2EPN14KWaylandServer16SurfaceInterfaceEPNS_8ToplevelEPNS_4ItemE@Base 4:5.24.3-deepin.1.9
 _ZN4KWin18WindowItemInternal11qt_metacallEN11QMetaObject4CallEiPPv@Base 4:5.24.3-deepin.1.9
 _ZN4KWin18WindowItemInternal11qt_metacastEPKc@Base 4:5.24.3-deepin.1.9
 _ZN4KWin18WindowItemInternal16staticMetaObjectE@Base 4:5.24.3-deepin.1.9
 _ZN4KWin18WindowItemInternalC1EPNS_14InternalClientEPNS_4ItemE@Base 4:5.24.3-deepin.1.9
 _ZN4KWin18WindowItemInternalC2EPNS_14InternalClientEPNS_4ItemE@Base 4:5.24.3-deepin.1.9
 _ZN4KWin18x11ToQtMouseButtonEi@Base 4:5.24.3-deepin.1.9
 _ZN4KWin19ScreenLockerWatcher10initializeEv@Base 4:5.24.3-deepin.1.9
 _ZN4KWin19ScreenLockerWatcher11aboutToLockEv@Base 4:5.24.3-deepin.1.9
 _ZN4KWin19ScreenLockerWatcher11qt_metacallEN11QMetaObject4CallEiPPv@Base 4:5.24.3-deepin.1.9
 _ZN4KWin19ScreenLockerWatcher11qt_metacastEPKc@Base 4:5.24.3-deepin.1.9
 _ZN4KWin19ScreenLockerWatcher13activeQueriedEP23QDBusPendingCallWatcher@Base 4:5.24.3-deepin.1.9
 _ZN4KWin19ScreenLockerWatcher16staticMetaObjectE@Base 4:5.24.3-deepin.1.9
 _ZN4KWin19ScreenLockerWatcher19serviceOwnerChangedERK7QStringS3_S3_@Base 4:5.24.3-deepin.1.9
 _ZN4KWin19ScreenLockerWatcher19serviceOwnerQueriedEv@Base 4:5.24.3-deepin.1.9
 _ZN4KWin19ScreenLockerWatcher24serviceRegisteredQueriedEv@Base 4:5.24.3-deepin.1.9
 _ZN4KWin19ScreenLockerWatcher6createEP7QObject@Base 4:5.24.3-deepin.1.9
 _ZN4KWin19ScreenLockerWatcher6lockedEb@Base 4:5.24.3-deepin.1.9
 _ZN4KWin19ScreenLockerWatcher6s_selfE@Base 4:5.24.3-deepin.1.9
 _ZN4KWin19ScreenLockerWatcher9setLockedEb@Base 4:5.24.3-deepin.1.9
 _ZN4KWin19ScreenLockerWatcherC1EP7QObject@Base 4:5.24.3-deepin.1.9
 _ZN4KWin19ScreenLockerWatcherC2EP7QObject@Base 4:5.24.3-deepin.1.9
 _ZN4KWin19ScreenLockerWatcherD0Ev@Base 4:5.24.3-deepin.1.9
 _ZN4KWin19ScreenLockerWatcherD1Ev@Base 4:5.24.3-deepin.1.9
 _ZN4KWin19ScreenLockerWatcherD2Ev@Base 4:5.24.3-deepin.1.9
 _ZN4KWin19SurfaceItemInternal11qt_metacallEN11QMetaObject4CallEiPPv@Base 4:5.24.3-deepin.1.9
 _ZN4KWin19SurfaceItemInternal11qt_metacastEPKc@Base 4:5.24.3-deepin.1.9
 _ZN4KWin19SurfaceItemInternal12createPixmapEv@Base 4:5.24.3-deepin.1.9
 _ZN4KWin19SurfaceItemInternal16staticMetaObjectE@Base 4:5.24.3-deepin.1.9
 _ZN4KWin19SurfaceItemInternal27handleBufferGeometryChangedEPNS_8ToplevelERK5QRect@Base 4:5.24.3-deepin.1.9
 _ZN4KWin19SurfaceItemInternalC1EPNS_14InternalClientEPNS_4ItemE@Base 4:5.24.3-deepin.1.9
 _ZN4KWin19SurfaceItemInternalC2EPNS_14InternalClientEPNS_4ItemE@Base 4:5.24.3-deepin.1.9
 _ZN4KWin19SurfaceItemXwayland11qt_metacallEN11QMetaObject4CallEiPPv@Base 4:5.24.3-deepin.1.9
 _ZN4KWin19SurfaceItemXwayland11qt_metacastEPKc@Base 4:5.24.3-deepin.1.9
 _ZN4KWin19SurfaceItemXwayland16staticMetaObjectE@Base 4:5.24.3-deepin.1.9
 _ZN4KWin19SurfaceItemXwaylandC1EPNS_8ToplevelEPNS_4ItemE@Base 4:5.24.3-deepin.1.9
 _ZN4KWin19SurfaceItemXwaylandC2EPNS_8ToplevelEPNS_4ItemE@Base 4:5.24.3-deepin.1.9
 _ZN4KWin19VirtualKeyboardDBus10setEnabledEb@Base 4:5.24.3-deepin.1.9
 _ZN4KWin19VirtualKeyboardDBus11qt_metacallEN11QMetaObject4CallEiPPv@Base 4:5.24.3-deepin.1.9
 _ZN4KWin19VirtualKeyboardDBus11qt_metacastEPKc@Base 4:5.24.3-deepin.1.9
 _ZN4KWin19VirtualKeyboardDBus13activeChangedEv@Base 4:5.24.3-deepin.1.9
 _ZN4KWin19VirtualKeyboardDBus14enabledChangedEv@Base 4:5.24.3-deepin.1.9
 _ZN4KWin19VirtualKeyboardDBus14visibleChangedEv@Base 4:5.24.3-deepin.1.9
 _ZN4KWin19VirtualKeyboardDBus16availableChangedEv@Base 4:5.24.3-deepin.1.9
 _ZN4KWin19VirtualKeyboardDBus16staticMetaObjectE@Base 4:5.24.3-deepin.1.9
 _ZN4KWin19VirtualKeyboardDBus9setActiveEb@Base 4:5.24.3-deepin.1.9
 _ZN4KWin19VirtualKeyboardDBusC1EPNS_11InputMethodE@Base 4:5.24.3-deepin.1.9
 _ZN4KWin19VirtualKeyboardDBusC2EPNS_11InputMethodE@Base 4:5.24.3-deepin.1.9
 _ZN4KWin19VirtualKeyboardDBusD0Ev@Base 4:5.24.3-deepin.1.9
 _ZN4KWin19VirtualKeyboardDBusD1Ev@Base 4:5.24.3-deepin.1.9
 _ZN4KWin19VirtualKeyboardDBusD2Ev@Base 4:5.24.3-deepin.1.9
 _ZN4KWin19WaylandOutputConfig9changeSetEPNS_21AbstractWaylandOutputE@Base 4:5.24.3-deepin.1.9
 _ZN4KWin19x11ToQtMouseButtonsEi@Base 4:5.24.3-deepin.1.9
 _ZN4KWin20AbstractEffectLoader11qt_metacallEN11QMetaObject4CallEiPPv@Base 4:5.24.3-deepin.1.9
 _ZN4KWin20AbstractEffectLoader11qt_metacastEPKc@Base 4:5.24.3-deepin.1.9
 _ZN4KWin20AbstractEffectLoader12effectLoadedEPNS_6EffectERK7QString@Base 4:5.24.3-deepin.1.9
 _ZN4KWin20AbstractEffectLoader16staticMetaObjectE@Base 4:5.24.3-deepin.1.9
 _ZN4KWin20AbstractEffectLoader9setConfigE28QExplicitlySharedDataPointerI13KSharedConfigE@Base 4:5.24.3-deepin.1.9
 _ZN4KWin20AbstractEffectLoaderC1EP7QObject@Base 4:5.24.3-deepin.1.9
 _ZN4KWin20AbstractEffectLoaderC2EP7QObject@Base 4:5.24.3-deepin.1.9
 _ZN4KWin20AbstractEffectLoaderD0Ev@Base 4:5.24.3-deepin.1.9
 _ZN4KWin20AbstractEffectLoaderD1Ev@Base 4:5.24.3-deepin.1.9
 _ZN4KWin20AbstractEffectLoaderD2Ev@Base 4:5.24.3-deepin.1.9
 _ZN4KWin20DpmsInputEventFilter10wheelEventEP11QWheelEvent@Base 4:5.24.3-deepin.1.9
 _ZN4KWin20DpmsInputEventFilter11touchMotionEiRK7QPointFj@Base 4:5.24.3-deepin.1.9
 _ZN4KWin20DpmsInputEventFilter12pointerEventEP11QMouseEventj@Base 4:5.24.3-deepin.1.9
 _ZN4KWin20DpmsInputEventFilter6notifyEv@Base 4:5.24.3-deepin.1.9
 _ZN4KWin20DpmsInputEventFilter7touchUpEij@Base 4:5.24.3-deepin.1.9
 _ZN4KWin20DpmsInputEventFilter8keyEventEP9QKeyEvent@Base 4:5.24.3-deepin.1.9
 _ZN4KWin20DpmsInputEventFilter9touchDownEiRK7QPointFj@Base 4:5.24.3-deepin.1.9
 _ZN4KWin20DpmsInputEventFilterC1Ev@Base 4:5.24.3-deepin.1.9
 _ZN4KWin20DpmsInputEventFilterC2Ev@Base 4:5.24.3-deepin.1.9
 _ZN4KWin20DpmsInputEventFilterD0Ev@Base 4:5.24.3-deepin.1.9
 _ZN4KWin20DpmsInputEventFilterD1Ev@Base 4:5.24.3-deepin.1.9
 _ZN4KWin20DpmsInputEventFilterD2Ev@Base 4:5.24.3-deepin.1.9
 _ZN4KWin20OpenGLSurfaceTextureC1EPNS_13OpenGLBackendE@Base 4:5.24.3-deepin.1.9
 _ZN4KWin20OpenGLSurfaceTextureC2EPNS_13OpenGLBackendE@Base 4:5.24.3-deepin.1.9
 _ZN4KWin20OpenGLSurfaceTextureD0Ev@Base 4:5.24.3-deepin.1.9
 _ZN4KWin20OpenGLSurfaceTextureD1Ev@Base 4:5.24.3-deepin.1.9
 _ZN4KWin20OpenGLSurfaceTextureD2Ev@Base 4:5.24.3-deepin.1.9
 _ZN4KWin20ScriptedEffectLoader10loadEffectERK15KPluginMetaData6QFlagsINS_14LoadEffectFlagEE@Base 4:5.24.3-deepin.1.9
 _ZN4KWin20ScriptedEffectLoader10loadEffectERK7QString@Base 4:5.24.3-deepin.1.9
 _ZN4KWin20ScriptedEffectLoader11qt_metacallEN11QMetaObject4CallEiPPv@Base 4:5.24.3-deepin.1.9
 _ZN4KWin20ScriptedEffectLoader11qt_metacastEPKc@Base 4:5.24.3-deepin.1.9
 _ZN4KWin20ScriptedEffectLoader15queryAndLoadAllEv@Base 4:5.24.3-deepin.1.9
 _ZN4KWin20ScriptedEffectLoader16staticMetaObjectE@Base 4:5.24.3-deepin.1.9
 _ZN4KWin20ScriptedEffectLoader5clearEv@Base 4:5.24.3-deepin.1.9
 _ZN4KWin20ScriptedEffectLoaderC1EP7QObject@Base 4:5.24.3-deepin.1.9
 _ZN4KWin20ScriptedEffectLoaderC2EP7QObject@Base 4:5.24.3-deepin.1.9
 _ZN4KWin20ScriptedEffectLoaderD0Ev@Base 4:5.24.3-deepin.1.9
 _ZN4KWin20ScriptedEffectLoaderD1Ev@Base 4:5.24.3-deepin.1.9
 _ZN4KWin20ScriptedEffectLoaderD2Ev@Base 4:5.24.3-deepin.1.9
 _ZN4KWin20SoftwareVsyncMonitor11qt_metacallEN11QMetaObject4CallEiPPv@Base 4:5.24.3-deepin.1.9
 _ZN4KWin20SoftwareVsyncMonitor11qt_metacastEPKc@Base 4:5.24.3-deepin.1.9
 _ZN4KWin20SoftwareVsyncMonitor14setRefreshRateEi@Base 4:5.24.3-deepin.1.9
 _ZN4KWin20SoftwareVsyncMonitor16staticMetaObjectE@Base 4:5.24.3-deepin.1.9
 _ZN4KWin20SoftwareVsyncMonitor20handleSyntheticVsyncEv@Base 4:5.24.3-deepin.1.9
 _ZN4KWin20SoftwareVsyncMonitor3armEv@Base 4:5.24.3-deepin.1.9
 _ZN4KWin20SoftwareVsyncMonitor6createEP7QObject@Base 4:5.24.3-deepin.1.9
 _ZN4KWin20SoftwareVsyncMonitorC1EP7QObject@Base 4:5.24.3-deepin.1.9
 _ZN4KWin20SoftwareVsyncMonitorC2EP7QObject@Base 4:5.24.3-deepin.1.9
 _ZN4KWin20SurfacePixmapWayland11qt_metacallEN11QMetaObject4CallEiPPv@Base 4:5.24.3-deepin.1.9
 _ZN4KWin20SurfacePixmapWayland11qt_metacastEPKc@Base 4:5.24.3-deepin.1.9
 _ZN4KWin20SurfacePixmapWayland16staticMetaObjectE@Base 4:5.24.3-deepin.1.9
 _ZN4KWin20SurfacePixmapWayland6createEv@Base 4:5.24.3-deepin.1.9
 _ZN4KWin20SurfacePixmapWayland6updateEv@Base 4:5.24.3-deepin.1.9
 _ZN4KWin20SurfacePixmapWayland9setBufferEPN14KWaylandServer12ClientBufferE@Base 4:5.24.3-deepin.1.9
 _ZN4KWin20SurfacePixmapWaylandC1EPNS_18SurfaceItemWaylandEP7QObject@Base 4:5.24.3-deepin.1.9
 _ZN4KWin20SurfacePixmapWaylandC2EPNS_18SurfaceItemWaylandEP7QObject@Base 4:5.24.3-deepin.1.9
 _ZN4KWin20SurfacePixmapWaylandD0Ev@Base 4:5.24.3-deepin.1.9
 _ZN4KWin20SurfacePixmapWaylandD1Ev@Base 4:5.24.3-deepin.1.9
 _ZN4KWin20SurfacePixmapWaylandD2Ev@Base 4:5.24.3-deepin.1.9
 _ZN4KWin21AbstractWaylandOutput10initializeERK7QStringS3_S3_S3_RK5QSizeRK7QVectorINS0_4ModeEERK10QByteArray@Base 4:5.24.3-deepin.1.9
 _ZN4KWin21AbstractWaylandOutput10setEnabledEb@Base 4:5.24.3-deepin.1.9
 _ZN4KWin21AbstractWaylandOutput11qt_metacallEN11QMetaObject4CallEiPPv@Base 4:5.24.3-deepin.1.9
 _ZN4KWin21AbstractWaylandOutput11qt_metacastEPKc@Base 4:5.24.3-deepin.1.9
 _ZN4KWin21AbstractWaylandOutput11setDpmsModeENS0_8DpmsModeE@Base 4:5.24.3-deepin.1.9
 _ZN4KWin21AbstractWaylandOutput12applyChangesERKNS_19WaylandOutputConfigE@Base 4:5.24.3-deepin.1.9
 _ZN4KWin21AbstractWaylandOutput12modesChangedEv@Base 4:5.24.3-deepin.1.9
 _ZN4KWin21AbstractWaylandOutput12outputChangeERK7QRegion@Base 4:5.24.3-deepin.1.9
 _ZN4KWin21AbstractWaylandOutput12setVrrPolicyENS_10RenderLoop9VrrPolicyE@Base 4:5.24.3-deepin.1.9
 _ZN4KWin21AbstractWaylandOutput14setPlaceholderEb@Base 4:5.24.3-deepin.1.9
 _ZN4KWin21AbstractWaylandOutput15dpmsModeChangedEv@Base 4:5.24.3-deepin.1.9
 _ZN4KWin21AbstractWaylandOutput15isBeingRecordedEv@Base 4:5.24.3-deepin.1.9
 _ZN4KWin21AbstractWaylandOutput15overscanChangedEv@Base 4:5.24.3-deepin.1.9
 _ZN4KWin21AbstractWaylandOutput15rgbRangeChangedEv@Base 4:5.24.3-deepin.1.9
 _ZN4KWin21AbstractWaylandOutput16recordingStartedEv@Base 4:5.24.3-deepin.1.9
 _ZN4KWin21AbstractWaylandOutput16recordingStoppedEv@Base 4:5.24.3-deepin.1.9
 _ZN4KWin21AbstractWaylandOutput16staticMetaObjectE@Base 4:5.24.3-deepin.1.9
 _ZN4KWin21AbstractWaylandOutput16transformChangedEv@Base 4:5.24.3-deepin.1.9
 _ZN4KWin21AbstractWaylandOutput16vrrPolicyChangedEv@Base 4:5.24.3-deepin.1.9
 _ZN4KWin21AbstractWaylandOutput18currentModeChangedEv@Base 4:5.24.3-deepin.1.9
 _ZN4KWin21AbstractWaylandOutput19capabilitiesChangedEv@Base 4:5.24.3-deepin.1.9
 _ZN4KWin21AbstractWaylandOutput19setDpmsModeInternalENS0_8DpmsModeE@Base 4:5.24.3-deepin.1.9
 _ZN4KWin21AbstractWaylandOutput19setOverscanInternalEj@Base 4:5.24.3-deepin.1.9
 _ZN4KWin21AbstractWaylandOutput19setRgbRangeInternalENS0_8RgbRangeE@Base 4:5.24.3-deepin.1.9
 _ZN4KWin21AbstractWaylandOutput19setSubPixelInternalENS0_8SubPixelE@Base 4:5.24.3-deepin.1.9
 _ZN4KWin21AbstractWaylandOutput20setTransformInternalENS_14AbstractOutput9TransformE@Base 4:5.24.3-deepin.1.9
 _ZN4KWin21AbstractWaylandOutput21logicalToNativeMatrixERK5QRectdNS_14AbstractOutput9TransformE@Base 4:5.24.3-deepin.1.9
 _ZN4KWin21AbstractWaylandOutput21setCapabilityInternalENS0_10CapabilityEb@Base 4:5.24.3-deepin.1.9
 _ZN4KWin21AbstractWaylandOutput22setCurrentModeInternalERK5QSizei@Base 4:5.24.3-deepin.1.9
 _ZN4KWin21AbstractWaylandOutput6moveToERK6QPoint@Base 4:5.24.3-deepin.1.9
 _ZN4KWin21AbstractWaylandOutput8setModesERK7QVectorINS0_4ModeEE@Base 4:5.24.3-deepin.1.9
 _ZN4KWin21AbstractWaylandOutput8setScaleEd@Base 4:5.24.3-deepin.1.9
 _ZN4KWin21AbstractWaylandOutputC1EP7QObject@Base 4:5.24.3-deepin.1.9
 _ZN4KWin21AbstractWaylandOutputC2EP7QObject@Base 4:5.24.3-deepin.1.9
 _ZN4KWin21ModifierOnlyShortcuts10wheelEventEPNS_10WheelEventE@Base 4:5.24.3-deepin.1.9
 _ZN4KWin21ModifierOnlyShortcuts11qt_metacallEN11QMetaObject4CallEiPPv@Base 4:5.24.3-deepin.1.9
 _ZN4KWin21ModifierOnlyShortcuts11qt_metacastEPKc@Base 4:5.24.3-deepin.1.9
 _ZN4KWin21ModifierOnlyShortcuts12pointerEventEPNS_10MouseEventE@Base 4:5.24.3-deepin.1.9
 _ZN4KWin21ModifierOnlyShortcuts16staticMetaObjectE@Base 4:5.24.3-deepin.1.9
 _ZN4KWin21ModifierOnlyShortcuts8keyEventEPNS_8KeyEventE@Base 4:5.24.3-deepin.1.9
 _ZN4KWin21ModifierOnlyShortcutsC1Ev@Base 4:5.24.3-deepin.1.9
 _ZN4KWin21ModifierOnlyShortcutsC2Ev@Base 4:5.24.3-deepin.1.9
 _ZN4KWin21ModifierOnlyShortcutsD0Ev@Base 4:5.24.3-deepin.1.9
 _ZN4KWin21ModifierOnlyShortcutsD1Ev@Base 4:5.24.3-deepin.1.9
 _ZN4KWin21ModifierOnlyShortcutsD2Ev@Base 4:5.24.3-deepin.1.9
 _ZN4KWin21SurfacePixmapInternal11qt_metacallEN11QMetaObject4CallEiPPv@Base 4:5.24.3-deepin.1.9
 _ZN4KWin21SurfacePixmapInternal11qt_metacastEPKc@Base 4:5.24.3-deepin.1.9
 _ZN4KWin21SurfacePixmapInternal16staticMetaObjectE@Base 4:5.24.3-deepin.1.9
 _ZN4KWin21SurfacePixmapInternal6createEv@Base 4:5.24.3-deepin.1.9
 _ZN4KWin21SurfacePixmapInternal6updateEv@Base 4:5.24.3-deepin.1.9
 _ZN4KWin21SurfacePixmapInternalC1EPNS_19SurfaceItemInternalEP7QObject@Base 4:5.24.3-deepin.1.9
 _ZN4KWin21SurfacePixmapInternalC2EPNS_19SurfaceItemInternalEP7QObject@Base 4:5.24.3-deepin.1.9
 _ZN4KWin21VirtualDesktopManager10m_maxCountE@Base 4:5.24.3-deepin.1.9
 _ZN4KWin21VirtualDesktopManager10setCurrentEPNS_14VirtualDesktopE@Base 4:5.24.3-deepin.1.9
 _ZN4KWin21VirtualDesktopManager10setCurrentEj@Base 4:5.24.3-deepin.1.9
 _ZN4KWin21VirtualDesktopManager11qt_metacallEN11QMetaObject4CallEiPPv@Base 4:5.24.3-deepin.1.9
 _ZN4KWin21VirtualDesktopManager11qt_metacastEPKc@Base 4:5.24.3-deepin.1.9
 _ZN4KWin21VirtualDesktopManager11rowsChangedEj@Base 4:5.24.3-deepin.1.9
 _ZN4KWin21VirtualDesktopManager11setRootInfoEP11NETRootInfo@Base 4:5.24.3-deepin.1.9
 _ZN4KWin21VirtualDesktopManager12countChangedEjj@Base 4:5.24.3-deepin.1.9
 _ZN4KWin21VirtualDesktopManager12slotPreviousEv@Base 4:5.24.3-deepin.1.9
 _ZN4KWin21VirtualDesktopManager12slotSwitchToEv@Base 4:5.24.3-deepin.1.9
 _ZN4KWin21VirtualDesktopManager12updateLayoutEv@Base 4:5.24.3-deepin.1.9
 _ZN4KWin21VirtualDesktopManager13initShortcutsEv@Base 4:5.24.3-deepin.1.9
 _ZN4KWin21VirtualDesktopManager13layoutChangedEii@Base 4:5.24.3-deepin.1.9
 _ZN4KWin21VirtualDesktopManager14currentChangedEjj@Base 4:5.24.3-deepin.1.9
 _ZN4KWin21VirtualDesktopManager14desktopCreatedEPNS_14VirtualDesktopE@Base 4:5.24.3-deepin.1.9
 _ZN4KWin21VirtualDesktopManager14desktopRemovedEPNS_14VirtualDesktopE@Base 4:5.24.3-deepin.1.9
 _ZN4KWin21VirtualDesktopManager14updateRootInfoEv@Base 4:5.24.3-deepin.1.9
 _ZN4KWin21VirtualDesktopManager16staticMetaObjectE@Base 4:5.24.3-deepin.1.9
 _ZN4KWin21VirtualDesktopManager19setNETDesktopLayoutEN2Qt11OrientationEjji@Base 4:5.24.3-deepin.1.9
 _ZN4KWin21VirtualDesktopManager20createVirtualDesktopEjRK7QString@Base 4:5.24.3-deepin.1.9
 _ZN4KWin21VirtualDesktopManager20removeVirtualDesktopEPNS_14VirtualDesktopE@Base 4:5.24.3-deepin.1.9
 _ZN4KWin21VirtualDesktopManager20removeVirtualDesktopERK7QString@Base 4:5.24.3-deepin.1.9
 _ZN4KWin21VirtualDesktopManager21initSwitchToShortcutsEv@Base 4:5.24.3-deepin.1.9
 _ZN4KWin21VirtualDesktopManager26setDesktopChangedDirectionENS_14SwipeDirectionE@Base 4:5.24.3-deepin.1.9
 _ZN4KWin21VirtualDesktopManager27setNavigationWrappingAroundEb@Base 4:5.24.3-deepin.1.9
 _ZN4KWin21VirtualDesktopManager27setVirtualDesktopManagementEPN14KWaylandServer39PlasmaVirtualDesktopManagementInterfaceE@Base 4:5.24.3-deepin.1.9
 _ZN4KWin21VirtualDesktopManager31navigationWrappingAroundChangedEv@Base 4:5.24.3-deepin.1.9
 _ZN4KWin21VirtualDesktopManager4loadEv@Base 4:5.24.3-deepin.1.9
 _ZN4KWin21VirtualDesktopManager4saveEv@Base 4:5.24.3-deepin.1.9
 _ZN4KWin21VirtualDesktopManager6createEP7QObject@Base 4:5.24.3-deepin.1.9
 _ZN4KWin21VirtualDesktopManager6slotUpEv@Base 4:5.24.3-deepin.1.9
 _ZN4KWin21VirtualDesktopManager7setRowsEj@Base 4:5.24.3-deepin.1.9
 _ZN4KWin21VirtualDesktopManager8setCountEj@Base 4:5.24.3-deepin.1.9
 _ZN4KWin21VirtualDesktopManager8slotDownEv@Base 4:5.24.3-deepin.1.9
 _ZN4KWin21VirtualDesktopManager8slotLeftEv@Base 4:5.24.3-deepin.1.9
 _ZN4KWin21VirtualDesktopManager8slotNextEv@Base 4:5.24.3-deepin.1.9
 _ZN4KWin21VirtualDesktopManager9addActionERK7QStringRK16KLocalizedStringjRK12QKeySequenceMS0_FvvE@Base 4:5.24.3-deepin.1.9
 _ZN4KWin21VirtualDesktopManager9addActionERK7QStringS3_MS0_FvvE@Base 4:5.24.3-deepin.1.9
 _ZN4KWin21VirtualDesktopManager9s_managerE@Base 4:5.24.3-deepin.1.9
 _ZN4KWin21VirtualDesktopManager9slotRightEv@Base 4:5.24.3-deepin.1.9
 _ZN4KWin21VirtualDesktopManagerC1EP7QObject@Base 4:5.24.3-deepin.1.9
 _ZN4KWin21VirtualDesktopManagerC2EP7QObject@Base 4:5.24.3-deepin.1.9
 _ZN4KWin21VirtualDesktopManagerD0Ev@Base 4:5.24.3-deepin.1.9
 _ZN4KWin21VirtualDesktopManagerD1Ev@Base 4:5.24.3-deepin.1.9
 _ZN4KWin21VirtualDesktopManagerD2Ev@Base 4:5.24.3-deepin.1.9
 _ZN4KWin22QPainterSurfaceTextureC1EPNS_15QPainterBackendE@Base 4:5.24.3-deepin.1.9
 _ZN4KWin22QPainterSurfaceTextureC2EPNS_15QPainterBackendE@Base 4:5.24.3-deepin.1.9
 _ZN4KWin23OpenGLSurfaceTextureX11C1EPNS_13OpenGLBackendEPNS_16SurfacePixmapX11E@Base 4:5.24.3-deepin.1.9
 _ZN4KWin23OpenGLSurfaceTextureX11C2EPNS_13OpenGLBackendEPNS_16SurfacePixmapX11E@Base 4:5.24.3-deepin.1.9
 _ZN4KWin23PointerInputRedirection11focusUpdateEPNS_8ToplevelES2_@Base 4:5.24.3-deepin.1.9
 _ZN4KWin23PointerInputRedirection11processAxisENS_16InputRedirection11PointerAxisEdiNS1_17PointerAxisSourceEjPNS_11InputDeviceE@Base 4:5.24.3-deepin.1.9
 _ZN4KWin23PointerInputRedirection11qt_metacallEN11QMetaObject4CallEiPPv@Base 4:5.24.3-deepin.1.9
 _ZN4KWin23PointerInputRedirection11qt_metacastEPKc@Base 4:5.24.3-deepin.1.9
 _ZN4KWin23PointerInputRedirection12toggleMotionERK7QPointFjPNS_11InputDeviceE@Base 4:5.24.3-deepin.1.9
 _ZN4KWin23PointerInputRedirection12updateButtonEjNS_16InputRedirection18PointerButtonStateE@Base 4:5.24.3-deepin.1.9
 _ZN4KWin23PointerInputRedirection13processButtonEjNS_16InputRedirection18PointerButtonStateEjPNS_11InputDeviceE@Base 4:5.24.3-deepin.1.9
 _ZN4KWin23PointerInputRedirection13processMotionERK6QSizeFS3_jyPNS_11InputDeviceE@Base 4:5.24.3-deepin.1.9
 _ZN4KWin23PointerInputRedirection13updateToResetEv@Base 4:5.24.3-deepin.1.9
 _ZN4KWin23PointerInputRedirection14setCursorShapeEN2Qt11CursorShapeE@Base 4:5.24.3-deepin.1.9
 _ZN4KWin23PointerInputRedirection14updatePositionERK7QPointF@Base 4:5.24.3-deepin.1.9
 _ZN4KWin23PointerInputRedirection16staticMetaObjectE@Base 4:5.24.3-deepin.1.9
 _ZN4KWin23PointerInputRedirection17cleanupDecorationEPNS_10Decoration19DecoratedClientImplES3_@Base 4:5.24.3-deepin.1.9
 _ZN4KWin23PointerInputRedirection19focusUpdatesBlockedEv@Base 4:5.24.3-deepin.1.9
 _ZN4KWin23PointerInputRedirection19updateCursorOutputsEv@Base 4:5.24.3-deepin.1.9
 _ZN4KWin23PointerInputRedirection20setEnableConstraintsEb@Base 4:5.24.3-deepin.1.9
 _ZN4KWin23PointerInputRedirection21processHoldGestureEndEjPNS_11InputDeviceE@Base 4:5.24.3-deepin.1.9
 _ZN4KWin23PointerInputRedirection21processMotionAbsoluteERK7QPointFjPNS_11InputDeviceE@Base 4:5.24.3-deepin.1.9
 _ZN4KWin23PointerInputRedirection21processMotionInternalERK7QPointFRK6QSizeFS6_jyPNS_11InputDeviceE@Base 4:5.24.3-deepin.1.9
 _ZN4KWin23PointerInputRedirection22processPinchGestureEndEjPNS_11InputDeviceE@Base 4:5.24.3-deepin.1.9
 _ZN4KWin23PointerInputRedirection22processSwipeGestureEndEjPNS_11InputDeviceE@Base 4:5.24.3-deepin.1.9
 _ZN4KWin23PointerInputRedirection23breakPointerConstraintsEPN14KWaylandServer16SurfaceInterfaceE@Base 4:5.24.3-deepin.1.9
 _ZN4KWin23PointerInputRedirection23processHoldGestureBeginEijPNS_11InputDeviceE@Base 4:5.24.3-deepin.1.9
 _ZN4KWin23PointerInputRedirection23updateAfterScreenChangeEv@Base 4:5.24.3-deepin.1.9
 _ZN4KWin23PointerInputRedirection23updateOnStartMoveResizeEv@Base 4:5.24.3-deepin.1.9
 _ZN4KWin23PointerInputRedirection24processPinchGestureBeginEijPNS_11InputDeviceE@Base 4:5.24.3-deepin.1.9
 _ZN4KWin23PointerInputRedirection24processSwipeGestureBeginEijPNS_11InputDeviceE@Base 4:5.24.3-deepin.1.9
 _ZN4KWin23PointerInputRedirection24setEffectsOverrideCursorEN2Qt11CursorShapeE@Base 4:5.24.3-deepin.1.9
 _ZN4KWin23PointerInputRedirection24setWindowSelectionCursorERK10QByteArray@Base 4:5.24.3-deepin.1.9
 _ZN4KWin23PointerInputRedirection24updatePointerConstraintsEv@Base 4:5.24.3-deepin.1.9
 _ZN4KWin23PointerInputRedirection25processPinchGestureUpdateEddRK6QSizeFjPNS_11InputDeviceE@Base 4:5.24.3-deepin.1.9
 _ZN4KWin23PointerInputRedirection25processSwipeGestureUpdateERK6QSizeFjPNS_11InputDeviceE@Base 4:5.24.3-deepin.1.9
 _ZN4KWin23PointerInputRedirection27processHoldGestureCancelledEjPNS_11InputDeviceE@Base 4:5.24.3-deepin.1.9
 _ZN4KWin23PointerInputRedirection27removeEffectsOverrideCursorEv@Base 4:5.24.3-deepin.1.9
 _ZN4KWin23PointerInputRedirection27removeWindowSelectionCursorEv@Base 4:5.24.3-deepin.1.9
 _ZN4KWin23PointerInputRedirection28processPinchGestureCancelledEjPNS_11InputDeviceE@Base 4:5.24.3-deepin.1.9
 _ZN4KWin23PointerInputRedirection28processSwipeGestureCancelledEjPNS_11InputDeviceE@Base 4:5.24.3-deepin.1.9
 _ZN4KWin23PointerInputRedirection38disconnectPointerConstraintsConnectionEv@Base 4:5.24.3-deepin.1.9
 _ZN4KWin23PointerInputRedirection41disconnectConfinedPointerRegionConnectionEv@Base 4:5.24.3-deepin.1.9
 _ZN4KWin23PointerInputRedirection49disconnectLockedPointerAboutToBeUnboundConnectionEv@Base 4:5.24.3-deepin.1.9
 _ZN4KWin23PointerInputRedirection4initEv@Base 4:5.24.3-deepin.1.9
 _ZN4KWin23PointerInputRedirection4warpERK7QPointF@Base 4:5.24.3-deepin.1.9
 _ZN4KWin23PointerInputRedirectionC1EPNS_16InputRedirectionE@Base 4:5.24.3-deepin.1.9
 _ZN4KWin23PointerInputRedirectionC2EPNS_16InputRedirectionE@Base 4:5.24.3-deepin.1.9
 _ZN4KWin23PointerInputRedirectionD0Ev@Base 4:5.24.3-deepin.1.9
 _ZN4KWin23PointerInputRedirectionD1Ev@Base 4:5.24.3-deepin.1.9
 _ZN4KWin23PointerInputRedirectionD2Ev@Base 4:5.24.3-deepin.1.9
 _ZN4KWin24KeyboardInputRedirection10processKeyEjNS_16InputRedirection16KeyboardKeyStateEjPNS_11InputDeviceE@Base 4:5.24.3-deepin.1.9
 _ZN4KWin24KeyboardInputRedirection11ledsChangedE6QFlagsINS_3LEDEE@Base 4:5.24.3-deepin.1.9
 _ZN4KWin24KeyboardInputRedirection11qt_metacallEN11QMetaObject4CallEiPPv@Base 4:5.24.3-deepin.1.9
 _ZN4KWin24KeyboardInputRedirection11qt_metacastEPKc@Base 4:5.24.3-deepin.1.9
 _ZN4KWin24KeyboardInputRedirection11reconfigureEv@Base 4:5.24.3-deepin.1.9
 _ZN4KWin24KeyboardInputRedirection16processModifiersEjjjj@Base 4:5.24.3-deepin.1.9
 _ZN4KWin24KeyboardInputRedirection16staticMetaObjectE@Base 4:5.24.3-deepin.1.9
 _ZN4KWin24KeyboardInputRedirection19processKeymapChangeEij@Base 4:5.24.3-deepin.1.9
 _ZN4KWin24KeyboardInputRedirection4initEv@Base 4:5.24.3-deepin.1.9
 _ZN4KWin24KeyboardInputRedirection6updateEv@Base 4:5.24.3-deepin.1.9
 _ZN4KWin24KeyboardInputRedirectionC1EPNS_16InputRedirectionE@Base 4:5.24.3-deepin.1.9
 _ZN4KWin24KeyboardInputRedirectionC2EPNS_16InputRedirectionE@Base 4:5.24.3-deepin.1.9
 _ZN4KWin24KeyboardInputRedirectionD0Ev@Base 4:5.24.3-deepin.1.9
 _ZN4KWin24KeyboardInputRedirectionD1Ev@Base 4:5.24.3-deepin.1.9
 _ZN4KWin24KeyboardInputRedirectionD2Ev@Base 4:5.24.3-deepin.1.9
 _ZN4KWin24x11ToQtKeyboardModifiersEi@Base 4:5.24.3-deepin.1.9
 _ZN4KWin25LinuxDmaBufV1ClientBufferC1ERK7QVectorIN14KWaylandServer18LinuxDmaBufV1PlaneEEjRK5QSizej@Base 4:5.24.3-deepin.1.9
 _ZN4KWin25LinuxDmaBufV1ClientBufferC2ERK7QVectorIN14KWaylandServer18LinuxDmaBufV1PlaneEEjRK5QSizej@Base 4:5.24.3-deepin.1.9
 _ZN4KWin25LinuxDmaBufV1ClientBufferD0Ev@Base 4:5.24.3-deepin.1.9
 _ZN4KWin25LinuxDmaBufV1ClientBufferD1Ev@Base 4:5.24.3-deepin.1.9
 _ZN4KWin25LinuxDmaBufV1ClientBufferD2Ev@Base 4:5.24.3-deepin.1.9
 _ZN4KWin26ApplicationWaylandAbstract11qt_metacallEN11QMetaObject4CallEiPPv@Base 4:5.24.3-deepin.1.9
 _ZN4KWin26ApplicationWaylandAbstract11qt_metacastEPKc@Base 4:5.24.3-deepin.1.9
 _ZN4KWin26ApplicationWaylandAbstract16staticMetaObjectE@Base 4:5.24.3-deepin.1.9
 _ZN4KWin26ApplicationWaylandAbstractC1ENS_11Application13OperationModeERiPPc@Base 4:5.24.3-deepin.1.9
 _ZN4KWin26ApplicationWaylandAbstractC2ENS_11Application13OperationModeERiPPc@Base 4:5.24.3-deepin.1.9
 _ZN4KWin26ApplicationWaylandAbstractD0Ev@Base 4:5.24.3-deepin.1.9
 _ZN4KWin26ApplicationWaylandAbstractD1Ev@Base 4:5.24.3-deepin.1.9
 _ZN4KWin26ApplicationWaylandAbstractD2Ev@Base 4:5.24.3-deepin.1.9
 _ZN4KWin26XdgActivationV1Integration11qt_metacallEN11QMetaObject4CallEiPPv@Base 4:5.24.3-deepin.1.9
 _ZN4KWin26XdgActivationV1Integration11qt_metacastEPKc@Base 4:5.24.3-deepin.1.9
 _ZN4KWin26XdgActivationV1Integration15ActivationTokenD1Ev@Base 4:5.24.3-deepin.1.9
 _ZN4KWin26XdgActivationV1Integration15ActivationTokenD2Ev@Base 4:5.24.3-deepin.1.9
 _ZN4KWin26XdgActivationV1Integration15activateSurfaceEPN14KWaylandServer16SurfaceInterfaceERK7QString@Base 4:5.24.3-deepin.1.9
 _ZN4KWin26XdgActivationV1Integration16staticMetaObjectE@Base 4:5.24.3-deepin.1.9
 _ZN4KWin26XdgActivationV1Integration5clearEv@Base 4:5.24.3-deepin.1.9
 _ZN4KWin26XdgActivationV1IntegrationC1EPN14KWaylandServer24XdgActivationV1InterfaceEP7QObject@Base 4:5.24.3-deepin.1.9
 _ZN4KWin26XdgActivationV1IntegrationC2EPN14KWaylandServer24XdgActivationV1InterfaceEP7QObject@Base 4:5.24.3-deepin.1.9
 _ZN4KWin27OpenGLSurfaceTextureWaylandC1EPNS_13OpenGLBackendEPNS_20SurfacePixmapWaylandE@Base 4:5.24.3-deepin.1.9
 _ZN4KWin27OpenGLSurfaceTextureWaylandC2EPNS_13OpenGLBackendEPNS_20SurfacePixmapWaylandE@Base 4:5.24.3-deepin.1.9
 _ZN4KWin28OpenGLSurfaceTextureInternalC1EPNS_13OpenGLBackendEPNS_21SurfacePixmapInternalE@Base 4:5.24.3-deepin.1.9
 _ZN4KWin28OpenGLSurfaceTextureInternalC2EPNS_13OpenGLBackendEPNS_21SurfacePixmapInternalE@Base 4:5.24.3-deepin.1.9
 _ZN4KWin29BasicEGLSurfaceTextureWayland14loadEglTextureEPN14KWaylandServer15DrmClientBufferE@Base 4:5.24.3-deepin.1.9
 _ZN4KWin29BasicEGLSurfaceTextureWayland14loadShmTextureEPN14KWaylandServer15ShmClientBufferE@Base 4:5.24.3-deepin.1.9
 _ZN4KWin29BasicEGLSurfaceTextureWayland16updateEglTextureEPN14KWaylandServer15DrmClientBufferE@Base 4:5.24.3-deepin.1.9
 _ZN4KWin29BasicEGLSurfaceTextureWayland16updateShmTextureEPN14KWaylandServer15ShmClientBufferERK7QRegion@Base 4:5.24.3-deepin.1.9
 _ZN4KWin29BasicEGLSurfaceTextureWayland17loadDmabufTextureEPN14KWaylandServer25LinuxDmaBufV1ClientBufferE@Base 4:5.24.3-deepin.1.9
 _ZN4KWin29BasicEGLSurfaceTextureWayland19updateDmabufTextureEPN14KWaylandServer25LinuxDmaBufV1ClientBufferE@Base 4:5.24.3-deepin.1.9
 _ZN4KWin29BasicEGLSurfaceTextureWayland6attachEPN14KWaylandServer15DrmClientBufferE@Base 4:5.24.3-deepin.1.9
 _ZN4KWin29BasicEGLSurfaceTextureWayland6createEv@Base 4:5.24.3-deepin.1.9
 _ZN4KWin29BasicEGLSurfaceTextureWayland6updateERK7QRegion@Base 4:5.24.3-deepin.1.9
 _ZN4KWin29BasicEGLSurfaceTextureWayland7destroyEv@Base 4:5.24.3-deepin.1.9
 _ZN4KWin29BasicEGLSurfaceTextureWaylandC1EPNS_13OpenGLBackendEPNS_20SurfacePixmapWaylandE@Base 4:5.24.3-deepin.1.9
 _ZN4KWin29BasicEGLSurfaceTextureWaylandC2EPNS_13OpenGLBackendEPNS_20SurfacePixmapWaylandE@Base 4:5.24.3-deepin.1.9
 _ZN4KWin29BasicEGLSurfaceTextureWaylandD0Ev@Base 4:5.24.3-deepin.1.9
 _ZN4KWin29BasicEGLSurfaceTextureWaylandD1Ev@Base 4:5.24.3-deepin.1.9
 _ZN4KWin29BasicEGLSurfaceTextureWaylandD2Ev@Base 4:5.24.3-deepin.1.9
 _ZN4KWin29QPainterSurfaceTextureWayland6createEv@Base 4:5.24.3-deepin.1.9
 _ZN4KWin29QPainterSurfaceTextureWayland6updateERK7QRegion@Base 4:5.24.3-deepin.1.9
 _ZN4KWin29QPainterSurfaceTextureWaylandC1EPNS_15QPainterBackendEPNS_20SurfacePixmapWaylandE@Base 4:5.24.3-deepin.1.9
 _ZN4KWin29QPainterSurfaceTextureWaylandC2EPNS_15QPainterBackendEPNS_20SurfacePixmapWaylandE@Base 4:5.24.3-deepin.1.9
 _ZN4KWin30BasicEGLSurfaceTextureInternal15updateFromImageERK7QRegion@Base 4:5.24.3-deepin.1.9
 _ZN4KWin30BasicEGLSurfaceTextureInternal21updateFromFramebufferEv@Base 4:5.24.3-deepin.1.9
 _ZN4KWin30BasicEGLSurfaceTextureInternal6createEv@Base 4:5.24.3-deepin.1.9
 _ZN4KWin30BasicEGLSurfaceTextureInternal6updateERK7QRegion@Base 4:5.24.3-deepin.1.9
 _ZN4KWin30BasicEGLSurfaceTextureInternalC1EPNS_13OpenGLBackendEPNS_21SurfacePixmapInternalE@Base 4:5.24.3-deepin.1.9
 _ZN4KWin30BasicEGLSurfaceTextureInternalC2EPNS_13OpenGLBackendEPNS_21SurfacePixmapInternalE@Base 4:5.24.3-deepin.1.9
 _ZN4KWin30LinuxDmaBufV1RendererInterface12importBufferERK7QVectorIN14KWaylandServer18LinuxDmaBufV1PlaneEEjRK5QSizej@Base 4:5.24.3-deepin.1.9
 _ZN4KWin30LinuxDmaBufV1RendererInterface31setSupportedFormatsAndModifiersERK7QVectorIN14KWaylandServer21LinuxDmaBufV1Feedback7TrancheEE@Base 4:5.24.3-deepin.1.9
 _ZN4KWin30LinuxDmaBufV1RendererInterfaceC1Ev@Base 4:5.24.3-deepin.1.9
 _ZN4KWin30LinuxDmaBufV1RendererInterfaceC2Ev@Base 4:5.24.3-deepin.1.9
 _ZN4KWin30LinuxDmaBufV1RendererInterfaceD0Ev@Base 4:5.24.3-deepin.1.9
 _ZN4KWin30LinuxDmaBufV1RendererInterfaceD1Ev@Base 4:5.24.3-deepin.1.9
 _ZN4KWin30LinuxDmaBufV1RendererInterfaceD2Ev@Base 4:5.24.3-deepin.1.9
 _ZN4KWin30QPainterSurfaceTextureInternal6createEv@Base 4:5.24.3-deepin.1.9
 _ZN4KWin30QPainterSurfaceTextureInternal6updateERK7QRegion@Base 4:5.24.3-deepin.1.9
 _ZN4KWin30QPainterSurfaceTextureInternalC1EPNS_15QPainterBackendEPNS_21SurfacePixmapInternalE@Base 4:5.24.3-deepin.1.9
 _ZN4KWin30QPainterSurfaceTextureInternalC2EPNS_15QPainterBackendEPNS_21SurfacePixmapInternalE@Base 4:5.24.3-deepin.1.9
 _ZN4KWin3Xcb10Extensions19extensionQueryReplyEPK27xcb_query_extension_reply_tPNS0_13ExtensionDataE@Base 4:5.24.3-deepin.1.9
 _ZN4KWin3Xcb10Extensions4initEv@Base 4:5.24.3-deepin.1.9
 _ZN4KWin3Xcb10Extensions4selfEv@Base 4:5.24.3-deepin.1.9
 _ZN4KWin3Xcb10Extensions6s_selfE@Base 4:5.24.3-deepin.1.9
 _ZN4KWin3Xcb10Extensions7destroyEv@Base 4:5.24.3-deepin.1.9
 _ZN4KWin3Xcb10ExtensionsC1Ev@Base 4:5.24.3-deepin.1.9
 _ZN4KWin3Xcb10ExtensionsC2Ev@Base 4:5.24.3-deepin.1.9
 _ZN4KWin3Xcb10ExtensionsD1Ev@Base 4:5.24.3-deepin.1.9
 _ZN4KWin3Xcb10ExtensionsD2Ev@Base 4:5.24.3-deepin.1.9
 _ZN4KWin3Xkb10setDDESeatEPN14KWaylandServer16DDESeatInterfaceE@Base 4:5.24.3-deepin.1.9
 _ZN4KWin3Xkb11ledsChangedERK6QFlagsINS_3LEDEE@Base 4:5.24.3-deepin.1.9
 _ZN4KWin3Xkb11qt_metacallEN11QMetaObject4CallEiPPv@Base 4:5.24.3-deepin.1.9
 _ZN4KWin3Xkb11qt_metacastEPKc@Base 4:5.24.3-deepin.1.9
 _ZN4KWin3Xkb11reconfigureEv@Base 4:5.24.3-deepin.1.9
 _ZN4KWin3Xkb12updateKeymapEP10xkb_keymap@Base 4:5.24.3-deepin.1.9
 _ZN4KWin3Xkb13installKeymapEij@Base 4:5.24.3-deepin.1.9
 _ZN4KWin3Xkb14switchToLayoutEj@Base 4:5.24.3-deepin.1.9
 _ZN4KWin3Xkb15updateModifiersEjjjj@Base 4:5.24.3-deepin.1.9
 _ZN4KWin3Xkb15updateModifiersEv@Base 4:5.24.3-deepin.1.9
 _ZN4KWin3Xkb16createKeymapFileEv@Base 4:5.24.3-deepin.1.9
 _ZN4KWin3Xkb16forwardModifiersEv@Base 4:5.24.3-deepin.1.9
 _ZN4KWin3Xkb16setNumLockConfigERK28QExplicitlySharedDataPointerI13KSharedConfigE@Base 4:5.24.3-deepin.1.9
 _ZN4KWin3Xkb16staticMetaObjectE@Base 4:5.24.3-deepin.1.9
 _ZN4KWin3Xkb17loadDefaultKeymapEv@Base 4:5.24.3-deepin.1.9
 _ZN4KWin3Xkb18switchToNextLayoutEv@Base 4:5.24.3-deepin.1.9
 _ZN4KWin3Xkb20loadKeymapFromConfigEv@Base 4:5.24.3-deepin.1.9
 _ZN4KWin3Xkb20modifierStateChangedEv@Base 4:5.24.3-deepin.1.9
 _ZN4KWin3Xkb21applyEnvironmentRulesER14xkb_rule_names@Base 4:5.24.3-deepin.1.9
 _ZN4KWin3Xkb22switchToPreviousLayoutEv@Base 4:5.24.3-deepin.1.9
 _ZN4KWin3Xkb23updateConsumedModifiersEj@Base 4:5.24.3-deepin.1.9
 _ZN4KWin3Xkb7setSeatEPN14KWaylandServer13SeatInterfaceE@Base 4:5.24.3-deepin.1.9
 _ZN4KWin3Xkb8toKeysymEj@Base 4:5.24.3-deepin.1.9
 _ZN4KWin3Xkb8toStringEj@Base 4:5.24.3-deepin.1.9
 _ZN4KWin3Xkb9setConfigERK28QExplicitlySharedDataPointerI13KSharedConfigE@Base 4:5.24.3-deepin.1.9
 _ZN4KWin3Xkb9updateKeyEjNS_16InputRedirection16KeyboardKeyStateE@Base 4:5.24.3-deepin.1.9
 _ZN4KWin3XkbC1EP7QObject@Base 4:5.24.3-deepin.1.9
 _ZN4KWin3XkbC2EP7QObject@Base 4:5.24.3-deepin.1.9
 _ZN4KWin3XkbD0Ev@Base 4:5.24.3-deepin.1.9
 _ZN4KWin3XkbD1Ev@Base 4:5.24.3-deepin.1.9
 _ZN4KWin3XkbD2Ev@Base 4:5.24.3-deepin.1.9
 _ZN4KWin4Edge10deactivateEv@Base 4:5.24.3-deepin.1.9
 _ZN4KWin4Edge10doActivateEv@Base 4:5.24.3-deepin.1.9
 _ZN4KWin4Edge11approachingENS_14ElectricBorderEdRK5QRect@Base 4:5.24.3-deepin.1.9
 _ZN4KWin4Edge11canActivateERK6QPointRK9QDateTime@Base 4:5.24.3-deepin.1.9
 _ZN4KWin4Edge11qt_metacallEN11QMetaObject4CallEiPPv@Base 4:5.24.3-deepin.1.9
 _ZN4KWin4Edge11qt_metacastEPKc@Base 4:5.24.3-deepin.1.9
 _ZN4KWin4Edge11setGeometryERK5QRect@Base 4:5.24.3-deepin.1.9
 _ZN4KWin4Edge12doDeactivateEv@Base 4:5.24.3-deepin.1.9
 _ZN4KWin4Edge12handleActionENS_20ElectricBorderActionE@Base 4:5.24.3-deepin.1.9
 _ZN4KWin4Edge13checkBlockingEv@Base 4:5.24.3-deepin.1.9
 _ZN4KWin4Edge13switchDesktopERK6QPoint@Base 4:5.24.3-deepin.1.9
 _ZN4KWin4Edge14pushCursorBackERK6QPoint@Base 4:5.24.3-deepin.1.9
 _ZN4KWin4Edge14setTouchActionENS_20ElectricBorderActionE@Base 4:5.24.3-deepin.1.9
 _ZN4KWin4Edge15markAsTriggeredERK6QPointRK9QDateTime@Base 4:5.24.3-deepin.1.9
 _ZN4KWin4Edge15stopApproachingEv@Base 4:5.24.3-deepin.1.9
 _ZN4KWin4Edge16doGeometryUpdateEv@Base 4:5.24.3-deepin.1.9
 _ZN4KWin4Edge16doUpdateBlockingEv@Base 4:5.24.3-deepin.1.9
 _ZN4KWin4Edge16handleByCallbackEv@Base 4:5.24.3-deepin.1.9
 _ZN4KWin4Edge16startApproachingEv@Base 4:5.24.3-deepin.1.9
 _ZN4KWin4Edge16staticMetaObjectE@Base 4:5.24.3-deepin.1.9
 _ZN4KWin4Edge17doStopApproachingEv@Base 4:5.24.3-deepin.1.9
 _ZN4KWin4Edge17updateApproachingERK6QPoint@Base 4:5.24.3-deepin.1.9
 _ZN4KWin4Edge18doStartApproachingEv@Base 4:5.24.3-deepin.1.9
 _ZN4KWin4Edge19handleTouchCallbackEv@Base 4:5.24.3-deepin.1.9
 _ZN4KWin4Edge20reserveTouchCallBackEP7QAction@Base 4:5.24.3-deepin.1.9
 _ZN4KWin4Edge21setDisableScreenEdgesEb@Base 4:5.24.3-deepin.1.9
 _ZN4KWin4Edge22unreserveTouchCallBackEP7QAction@Base 4:5.24.3-deepin.1.9
 _ZN4KWin4Edge31activatesForTouchGestureChangedEv@Base 4:5.24.3-deepin.1.9
 _ZN4KWin4Edge5checkERK6QPointRK9QDateTimeb@Base 4:5.24.3-deepin.1.9
 _ZN4KWin4Edge6handleERK6QPoint@Base 4:5.24.3-deepin.1.9
 _ZN4KWin4Edge7reserveEP7QObjectPKc@Base 4:5.24.3-deepin.1.9
 _ZN4KWin4Edge7reserveEv@Base 4:5.24.3-deepin.1.9
 _ZN4KWin4Edge8activateEv@Base 4:5.24.3-deepin.1.9
 _ZN4KWin4Edge9setBorderENS_14ElectricBorderE@Base 4:5.24.3-deepin.1.9
 _ZN4KWin4Edge9setClientEPNS_14AbstractClientE@Base 4:5.24.3-deepin.1.9
 _ZN4KWin4Edge9unreserveEP7QObject@Base 4:5.24.3-deepin.1.9
 _ZN4KWin4Edge9unreserveEv@Base 4:5.24.3-deepin.1.9
 _ZN4KWin4EdgeC1EPNS_11ScreenEdgesE@Base 4:5.24.3-deepin.1.9
 _ZN4KWin4EdgeC2EPNS_11ScreenEdgesE@Base 4:5.24.3-deepin.1.9
 _ZN4KWin4EdgeD0Ev@Base 4:5.24.3-deepin.1.9
 _ZN4KWin4EdgeD1Ev@Base 4:5.24.3-deepin.1.9
 _ZN4KWin4EdgeD2Ev@Base 4:5.24.3-deepin.1.9
 _ZN4KWin4Item10preprocessEv@Base 4:5.24.3-deepin.1.9
 _ZN4KWin4Item10setVisibleEb@Base 4:5.24.3-deepin.1.9
 _ZN4KWin4Item10stackAfterEPS0_@Base 4:5.24.3-deepin.1.9
 _ZN4KWin4Item11qt_metacallEN11QMetaObject4CallEiPPv@Base 4:5.24.3-deepin.1.9
 _ZN4KWin4Item11qt_metacastEPKc@Base 4:5.24.3-deepin.1.9
 _ZN4KWin4Item11removeChildEPS0_@Base 4:5.24.3-deepin.1.9
 _ZN4KWin4Item11setPositionERK6QPoint@Base 4:5.24.3-deepin.1.9
 _ZN4KWin4Item11sizeChangedEv@Base 4:5.24.3-deepin.1.9
 _ZN4KWin4Item11stackBeforeEPS0_@Base 4:5.24.3-deepin.1.9
 _ZN4KWin4Item12discardQuadsEv@Base 4:5.24.3-deepin.1.9
 _ZN4KWin4Item12setTransformERK10QMatrix4x4@Base 4:5.24.3-deepin.1.9
 _ZN4KWin4Item13resetRepaintsEPNS_14AbstractOutputE@Base 4:5.24.3-deepin.1.9
 _ZN4KWin4Item13scheduleFrameEv@Base 4:5.24.3-deepin.1.9
 _ZN4KWin4Item13setParentItemEPS0_@Base 4:5.24.3-deepin.1.9
 _ZN4KWin4Item14removeRepaintsEPNS_14AbstractOutputE@Base 4:5.24.3-deepin.1.9
 _ZN4KWin4Item15positionChangedEv@Base 4:5.24.3-deepin.1.9
 _ZN4KWin4Item15scheduleRepaintERK7QRegion@Base 4:5.24.3-deepin.1.9
 _ZN4KWin4Item16staticMetaObjectE@Base 4:5.24.3-deepin.1.9
 _ZN4KWin4Item18updateBoundingRectEv@Base 4:5.24.3-deepin.1.9
 _ZN4KWin4Item19boundingRectChangedEv@Base 4:5.24.3-deepin.1.9
 _ZN4KWin4Item23scheduleRepaintInternalERK7QRegion@Base 4:5.24.3-deepin.1.9
 _ZN4KWin4Item25markSortedChildItemsDirtyEv@Base 4:5.24.3-deepin.1.9
 _ZN4KWin4Item25updateEffectiveVisibilityEv@Base 4:5.24.3-deepin.1.9
 _ZN4KWin4Item4setZEi@Base 4:5.24.3-deepin.1.9
 _ZN4KWin4Item7setSizeERK5QSize@Base 4:5.24.3-deepin.1.9
 _ZN4KWin4Item8addChildEPS0_@Base 4:5.24.3-deepin.1.9
 _ZN4KWin4ItemC1EPS0_@Base 4:5.24.3-deepin.1.9
 _ZN4KWin4ItemC2EPS0_@Base 4:5.24.3-deepin.1.9
 _ZN4KWin4ItemD0Ev@Base 4:5.24.3-deepin.1.9
 _ZN4KWin4ItemD1Ev@Base 4:5.24.3-deepin.1.9
 _ZN4KWin4ItemD2Ev@Base 4:5.24.3-deepin.1.9
 _ZN4KWin4Udev16listFramebuffersEv@Base 4:5.24.3-deepin.1.9
 _ZN4KWin4Udev17deviceFromSyspathEPKc@Base 4:5.24.3-deepin.1.9
 _ZN4KWin4Udev7monitorEv@Base 4:5.24.3-deepin.1.9
 _ZN4KWin4Udev8listGPUsEv@Base 4:5.24.3-deepin.1.9
 _ZN4KWin4UdevC1Ev@Base 4:5.24.3-deepin.1.9
 _ZN4KWin4UdevC2Ev@Base 4:5.24.3-deepin.1.9
 _ZN4KWin4UdevD1Ev@Base 4:5.24.3-deepin.1.9
 _ZN4KWin4UdevD2Ev@Base 4:5.24.3-deepin.1.9
 _ZN4KWin5Atoms15retrieveHelpersEv@Base 4:5.24.3-deepin.1.9
 _ZN4KWin5AtomsC1Ev@Base 4:5.24.3-deepin.1.9
 _ZN4KWin5AtomsC2Ev@Base 4:5.24.3-deepin.1.9
 _ZN4KWin5Scene10addRepaintERK5QRect@Base 4:5.24.3-deepin.1.9
 _ZN4KWin5Scene10addRepaintERK7QRegion@Base 4:5.24.3-deepin.1.9
 _ZN4KWin5Scene10addRepaintEiiii@Base 4:5.24.3-deepin.1.9
 _ZN4KWin5Scene10initializeEv@Base 4:5.24.3-deepin.1.9
 _ZN4KWin5Scene11EffectFrameC1EPNS_15EffectFrameImplE@Base 4:5.24.3-deepin.1.9
 _ZN4KWin5Scene11EffectFrameC2EPNS_15EffectFrameImplE@Base 4:5.24.3-deepin.1.9
 _ZN4KWin5Scene11EffectFrameD0Ev@Base 4:5.24.3-deepin.1.9
 _ZN4KWin5Scene11EffectFrameD1Ev@Base 4:5.24.3-deepin.1.9
 _ZN4KWin5Scene11EffectFrameD2Ev@Base 4:5.24.3-deepin.1.9
 _ZN4KWin5Scene11addToplevelEPNS_8ToplevelE@Base 4:5.24.3-deepin.1.9
 _ZN4KWin5Scene11paintScreenEPNS_14AbstractOutputERK5QListIPNS_8ToplevelEE@Base 4:5.24.3-deepin.1.9
 _ZN4KWin5Scene11paintScreenERK7QRegionS3_PS1_S4_PNS_10RenderLoopERK10QMatrix4x4@Base 4:5.24.3-deepin.1.9
 _ZN4KWin5Scene11paintWindowEPNS0_6WindowEiRK7QRegion@Base 4:5.24.3-deepin.1.9
 _ZN4KWin5Scene11qt_metacallEN11QMetaObject4CallEiPPv@Base 4:5.24.3-deepin.1.9
 _ZN4KWin5Scene11qt_metacastEPKc@Base 4:5.24.3-deepin.1.9
 _ZN4KWin5Scene11setGeometryERK5QRect@Base 4:5.24.3-deepin.1.9
 _ZN4KWin5Scene12paintDesktopEiiRK7QRegionRNS_15ScreenPaintDataE@Base 4:5.24.3-deepin.1.9
 _ZN4KWin5Scene12windowClosedEPNS_8ToplevelEPNS_7DeletedE@Base 4:5.24.3-deepin.1.9
 _ZN4KWin5Scene13frameRenderedEv@Base 4:5.24.3-deepin.1.9
 _ZN4KWin5Scene13resetRepaintsEPNS_14AbstractOutputE@Base 4:5.24.3-deepin.1.9
 _ZN4KWin5Scene14addRepaintFullEv@Base 4:5.24.3-deepin.1.9
 _ZN4KWin5Scene14removeRepaintsEPNS_14AbstractOutputE@Base 4:5.24.3-deepin.1.9
 _ZN4KWin5Scene14removeToplevelEPNS_8ToplevelE@Base 4:5.24.3-deepin.1.9
 _ZN4KWin5Scene15finalDrawWindowEPNS_16EffectWindowImplEiRK7QRegionRNS_15WindowPaintDataE@Base 4:5.24.3-deepin.1.9
 _ZN4KWin5Scene16finalPaintScreenEiRK7QRegionRNS_15ScreenPaintDataE@Base 4:5.24.3-deepin.1.9
 _ZN4KWin5Scene16finalPaintWindowEPNS_16EffectWindowImplEiRK7QRegionRNS_15WindowPaintDataE@Base 4:5.24.3-deepin.1.9
 _ZN4KWin5Scene16staticMetaObjectE@Base 4:5.24.3-deepin.1.9
 _ZN4KWin5Scene17addCursorRepaintsEv@Base 4:5.24.3-deepin.1.9
 _ZN4KWin5Scene17extendPaintRegionER7QRegionb@Base 4:5.24.3-deepin.1.9
 _ZN4KWin5Scene17paintSimpleScreenEiRK7QRegion@Base 4:5.24.3-deepin.1.9
 _ZN4KWin5Scene18clearStackingOrderEv@Base 4:5.24.3-deepin.1.9
 _ZN4KWin5Scene18paintGenericScreenEiRKNS_15ScreenPaintDataE@Base 4:5.24.3-deepin.1.9
 _ZN4KWin5Scene19createStackingOrderERK5QListIPNS_8ToplevelEE@Base 4:5.24.3-deepin.1.9
 _ZN4KWin5Scene20aboutToStartPaintingEPNS_14AbstractOutputERK7QRegion@Base 4:5.24.3-deepin.1.9
 _ZN4KWin5Scene22createProjectionMatrixERK5QRect@Base 4:5.24.3-deepin.1.9
 _ZN4KWin5Scene23createSurfaceTextureX11EPNS_16SurfacePixmapX11E@Base 4:5.24.3-deepin.1.9
 _ZN4KWin5Scene24doneOpenGLContextCurrentEv@Base 4:5.24.3-deepin.1.9
 _ZN4KWin5Scene24makeOpenGLContextCurrentEv@Base 4:5.24.3-deepin.1.9
 _ZN4KWin5Scene27createSurfaceTextureWaylandEPNS_20SurfacePixmapWaylandE@Base 4:5.24.3-deepin.1.9
 _ZN4KWin5Scene28createSurfaceTextureInternalEPNS_21SurfacePixmapInternalE@Base 4:5.24.3-deepin.1.9
 _ZN4KWin5Scene6Window11qt_metacallEN11QMetaObject4CallEiPPv@Base 4:5.24.3-deepin.1.9
 _ZN4KWin5Scene6Window11qt_metacastEPKc@Base 4:5.24.3-deepin.1.9
 _ZN4KWin5Scene6Window14enablePaintingEi@Base 4:5.24.3-deepin.1.9
 _ZN4KWin5Scene6Window14updateToplevelEPNS_7DeletedE@Base 4:5.24.3-deepin.1.9
 _ZN4KWin5Scene6Window15disablePaintingEi@Base 4:5.24.3-deepin.1.9
 _ZN4KWin5Scene6Window16staticMetaObjectE@Base 4:5.24.3-deepin.1.9
 _ZN4KWin5Scene6Window20resetPaintingEnabledEv@Base 4:5.24.3-deepin.1.9
 _ZN4KWin5Scene6Window20updateWindowPositionEv@Base 4:5.24.3-deepin.1.9
 _ZN4KWin5Scene6Window23referencePreviousPixmapEv@Base 4:5.24.3-deepin.1.9
 _ZN4KWin5Scene6Window25unreferencePreviousPixmapEv@Base 4:5.24.3-deepin.1.9
 _ZN4KWin5Scene6Window30referencePreviousPixmap_helperEPNS_11SurfaceItemE@Base 4:5.24.3-deepin.1.9
 _ZN4KWin5Scene6Window32unreferencePreviousPixmap_helperEPNS_11SurfaceItemE@Base 4:5.24.3-deepin.1.9
 _ZN4KWin5Scene6WindowC1EPNS_8ToplevelEP7QObject@Base 4:5.24.3-deepin.1.9
 _ZN4KWin5Scene6WindowC2EPNS_8ToplevelEP7QObject@Base 4:5.24.3-deepin.1.9
 _ZN4KWin5Scene6WindowD0Ev@Base 4:5.24.3-deepin.1.9
 _ZN4KWin5Scene6WindowD1Ev@Base 4:5.24.3-deepin.1.9
 _ZN4KWin5Scene6WindowD2Ev@Base 4:5.24.3-deepin.1.9
 _ZN4KWin5SceneC1EP7QObject@Base 4:5.24.3-deepin.1.9
 _ZN4KWin5SceneC2EP7QObject@Base 4:5.24.3-deepin.1.9
 _ZN4KWin5SceneD0Ev@Base 4:5.24.3-deepin.1.9
 _ZN4KWin5SceneD1Ev@Base 4:5.24.3-deepin.1.9
 _ZN4KWin5SceneD2Ev@Base 4:5.24.3-deepin.1.9
 _ZN4KWin5atomsE@Base 4:5.24.3-deepin.1.9
 _ZN4KWin5xTimeEv@Base 4:5.24.3-deepin.1.9
 _ZN4KWin6Cursor10posChangedERK6QPoint@Base 4:5.24.3-deepin.1.9
 _ZN4KWin6Cursor11qt_metacallEN11QMetaObject4CallEiPPv@Base 4:5.24.3-deepin.1.9
 _ZN4KWin6Cursor11qt_metacastEPKc@Base 4:5.24.3-deepin.1.9
 _ZN4KWin6Cursor11updateThemeERK7QStringi@Base 4:5.24.3-deepin.1.9
 _ZN4KWin6Cursor12mouseChangedERK6QPointS3_6QFlagsIN2Qt11MouseButtonEES7_S4_INS5_16KeyboardModifierEES9_@Base 4:5.24.3-deepin.1.9
 _ZN4KWin6Cursor12themeChangedEv@Base 4:5.24.3-deepin.1.9
 _ZN4KWin6Cursor12updateCursorERK6QImageRK6QPoint@Base 4:5.24.3-deepin.1.9
 _ZN4KWin6Cursor13cursorChangedEv@Base 4:5.24.3-deepin.1.9
 _ZN4KWin6Cursor14markAsRenderedENSt6chrono8durationIlSt5ratioILl1ELl1000EEEE@Base 4:5.24.3-deepin.1.9
 _ZN4KWin6Cursor16defaultThemeNameEv@Base 4:5.24.3-deepin.1.9
 _ZN4KWin6Cursor16defaultThemeSizeEv@Base 4:5.24.3-deepin.1.9
 _ZN4KWin6Cursor16staticMetaObjectE@Base 4:5.24.3-deepin.1.9
 _ZN4KWin6Cursor16stopMousePollingEv@Base 4:5.24.3-deepin.1.9
 _ZN4KWin6Cursor17loadThemeSettingsEv@Base 4:5.24.3-deepin.1.9
 _ZN4KWin6Cursor17startMousePollingEv@Base 4:5.24.3-deepin.1.9
 _ZN4KWin6Cursor18doStopMousePollingEv@Base 4:5.24.3-deepin.1.9
 _ZN4KWin6Cursor18stopCursorTrackingEv@Base 4:5.24.3-deepin.1.9
 _ZN4KWin6Cursor19doStartMousePollingEv@Base 4:5.24.3-deepin.1.9
 _ZN4KWin6Cursor19startCursorTrackingEv@Base 4:5.24.3-deepin.1.9
 _ZN4KWin6Cursor20doStopCursorTrackingEv@Base 4:5.24.3-deepin.1.9
 _ZN4KWin6Cursor20loadThemeFromKConfigEv@Base 4:5.24.3-deepin.1.9
 _ZN4KWin6Cursor21doStartCursorTrackingEv@Base 4:5.24.3-deepin.1.9
 _ZN4KWin6Cursor22cursorAlternativeNamesERK10QByteArray@Base 4:5.24.3-deepin.1.9
 _ZN4KWin6Cursor31slotKGlobalSettingsNotifyChangeEii@Base 4:5.24.3-deepin.1.9
 _ZN4KWin6Cursor3posEv@Base 4:5.24.3-deepin.1.9
 _ZN4KWin6Cursor6setPosERK6QPoint@Base 4:5.24.3-deepin.1.9
 _ZN4KWin6Cursor6setPosEii@Base 4:5.24.3-deepin.1.9
 _ZN4KWin6Cursor8doGetPosEv@Base 4:5.24.3-deepin.1.9
 _ZN4KWin6Cursor8doSetPosEv@Base 4:5.24.3-deepin.1.9
 _ZN4KWin6Cursor8renderedENSt6chrono8durationIlSt5ratioILl1ELl1000EEEE@Base 4:5.24.3-deepin.1.9
 _ZN4KWin6Cursor9updatePosERK6QPoint@Base 4:5.24.3-deepin.1.9
 _ZN4KWin6Cursor9x11CursorENS_11CursorShapeE@Base 4:5.24.3-deepin.1.9
 _ZN4KWin6Cursor9x11CursorERK10QByteArray@Base 4:5.24.3-deepin.1.9
 _ZN4KWin6CursorC1EP7QObject@Base 4:5.24.3-deepin.1.9
 _ZN4KWin6CursorC2EP7QObject@Base 4:5.24.3-deepin.1.9
 _ZN4KWin6CursorD0Ev@Base 4:5.24.3-deepin.1.9
 _ZN4KWin6CursorD1Ev@Base 4:5.24.3-deepin.1.9
 _ZN4KWin6CursorD2Ev@Base 4:5.24.3-deepin.1.9
 _ZN4KWin6Plugin11qt_metacallEN11QMetaObject4CallEiPPv@Base 4:5.24.3-deepin.1.9
 _ZN4KWin6Plugin11qt_metacastEPKc@Base 4:5.24.3-deepin.1.9
 _ZN4KWin6Plugin16staticMetaObjectE@Base 4:5.24.3-deepin.1.9
 _ZN4KWin6PluginC1EP7QObject@Base 4:5.24.3-deepin.1.9
 _ZN4KWin6PluginC2EP7QObject@Base 4:5.24.3-deepin.1.9
 _ZN4KWin6Shadow11qt_metacallEN11QMetaObject4CallEiPPv@Base 4:5.24.3-deepin.1.9
 _ZN4KWin6Shadow11qt_metacastEPKc@Base 4:5.24.3-deepin.1.9
 _ZN4KWin6Shadow11rectChangedEv@Base 4:5.24.3-deepin.1.9
 _ZN4KWin6Shadow11setToplevelEPNS_8ToplevelE@Base 4:5.24.3-deepin.1.9
 _ZN4KWin6Shadow12createShadowEPNS_8ToplevelE@Base 4:5.24.3-deepin.1.9
 _ZN4KWin6Shadow12updateShadowEv@Base 4:5.24.3-deepin.1.9
 _ZN4KWin6Shadow13offsetChangedEv@Base 4:5.24.3-deepin.1.9
 _ZN4KWin6Shadow14textureChangedEv@Base 4:5.24.3-deepin.1.9
 _ZN4KWin6Shadow15geometryChangedEv@Base 4:5.24.3-deepin.1.9
 _ZN4KWin6Shadow16setShadowElementERK7QPixmapNS0_14ShadowElementsE@Base 4:5.24.3-deepin.1.9
 _ZN4KWin6Shadow16staticMetaObjectE@Base 4:5.24.3-deepin.1.9
 _ZN4KWin6Shadow19createShadowFromX11EPNS_8ToplevelE@Base 4:5.24.3-deepin.1.9
 _ZN4KWin6Shadow21readX11ShadowPropertyEj@Base 4:5.24.3-deepin.1.9
 _ZN4KWin6Shadow23createShadowFromWaylandEPNS_8ToplevelE@Base 4:5.24.3-deepin.1.9
 _ZN4KWin6Shadow26createShadowFromDecorationEPNS_8ToplevelE@Base 4:5.24.3-deepin.1.9
 _ZN4KWin6Shadow30createShadowFromInternalWindowEPNS_8ToplevelE@Base 4:5.24.3-deepin.1.9
 _ZN4KWin6Shadow4initEPK7QWindow@Base 4:5.24.3-deepin.1.9
 _ZN4KWin6Shadow4initEPN12KDecoration210DecorationE@Base 4:5.24.3-deepin.1.9
 _ZN4KWin6Shadow4initERK7QVectorIjE@Base 4:5.24.3-deepin.1.9
 _ZN4KWin6Shadow4initERK8QPointerIN14KWaylandServer15ShadowInterfaceEE@Base 4:5.24.3-deepin.1.9
 _ZN4KWin6ShadowC1EPNS_8ToplevelE@Base 4:5.24.3-deepin.1.9
 _ZN4KWin6ShadowC2EPNS_8ToplevelE@Base 4:5.24.3-deepin.1.9
 _ZN4KWin6ShadowD0Ev@Base 4:5.24.3-deepin.1.9
 _ZN4KWin6ShadowD1Ev@Base 4:5.24.3-deepin.1.9
 _ZN4KWin6ShadowD2Ev@Base 4:5.24.3-deepin.1.9
 _ZN4KWin6TabBox6TabBox10loadConfigERK12KConfigGroupRNS0_12TabBoxConfigE@Base 4:5.24.3-deepin.1.9
 _ZN4KWin6TabBox6TabBox10toggleModeENS_10TabBoxModeE@Base 4:5.24.3-deepin.1.9
 _ZN4KWin6TabBox6TabBox11delayedShowEv@Base 4:5.24.3-deepin.1.9
 _ZN4KWin6TabBox6TabBox11qt_metacallEN11QMetaObject4CallEiPPv@Base 4:5.24.3-deepin.1.9
 _ZN4KWin6TabBox6TabBox11qt_metacastEPKc@Base 4:5.24.3-deepin.1.9
 _ZN4KWin6TabBox6TabBox11reconfigureEv@Base 4:5.24.3-deepin.1.9
 _ZN4KWin6TabBox6TabBox11tabBoxAddedEi@Base 4:5.24.3-deepin.1.9
 _ZN4KWin6TabBox6TabBox12handlerReadyEv@Base 4:5.24.3-deepin.1.9
 _ZN4KWin6TabBox6TabBox12tabBoxClosedEv@Base 4:5.24.3-deepin.1.9
 _ZN4KWin6TabBox6TabBox13currentClientEv@Base 4:5.24.3-deepin.1.9
 _ZN4KWin6TabBox6TabBox13initShortcutsEv@Base 4:5.24.3-deepin.1.9
 _ZN4KWin6TabBox6TabBox13shadeActivateEPNS_14AbstractClientE@Base 4:5.24.3-deepin.1.9
 _ZN4KWin6TabBox6TabBox13tabBoxUpdatedEv@Base 4:5.24.3-deepin.1.9
 _ZN4KWin6TabBox6TabBox14currentDesktopEv@Base 4:5.24.3-deepin.1.9
 _ZN4KWin6TabBox6TabBox14tabBoxKeyEventEP9QKeyEvent@Base 4:5.24.3-deepin.1.9
 _ZN4KWin6TabBox6TabBox15grabbedKeyEventEP9QKeyEvent@Base 4:5.24.3-deepin.1.9
 _ZN4KWin6TabBox6TabBox15setCurrentIndexE11QModelIndexb@Base 4:5.24.3-deepin.1.9
 _ZN4KWin6TabBox6TabBox16handleMouseEventEP11QMouseEvent@Base 4:5.24.3-deepin.1.9
 _ZN4KWin6TabBox6TabBox16handleWheelEventEP11QWheelEvent@Base 4:5.24.3-deepin.1.9
 _ZN4KWin6TabBox6TabBox16removeTabBoxGrabEv@Base 4:5.24.3-deepin.1.9
 _ZN4KWin6TabBox6TabBox16setCurrentClientEPNS_14AbstractClientE@Base 4:5.24.3-deepin.1.9
 _ZN4KWin6TabBox6TabBox16staticMetaObjectE@Base 4:5.24.3-deepin.1.9
 _ZN4KWin6TabBox6TabBox17currentClientListEv@Base 4:5.24.3-deepin.1.9
 _ZN4KWin6TabBox6TabBox17modifiersReleasedEv@Base 4:5.24.3-deepin.1.9
 _ZN4KWin6TabBox6TabBox17setCurrentDesktopEi@Base 4:5.24.3-deepin.1.9
 _ZN4KWin6TabBox6TabBox18currentDesktopListEv@Base 4:5.24.3-deepin.1.9
 _ZN4KWin6TabBox6TabBox19establishTabBoxGrabEv@Base 4:5.24.3-deepin.1.9
 _ZN4KWin6TabBox6TabBox19walkThroughDesktopsEb@Base 4:5.24.3-deepin.1.9
 _ZN4KWin6TabBox6TabBox21CDEWalkThroughWindowsEb@Base 4:5.24.3-deepin.1.9
 _ZN4KWin6TabBox6TabBox21KDEWalkThroughWindowsEb@Base 4:5.24.3-deepin.1.9
 _ZN4KWin6TabBox6TabBox21firstClientIsMinisizeEv@Base 4:5.24.3-deepin.1.9
 _ZN4KWin6TabBox6TabBox21globalShortcutChangedEP7QActionRK12QKeySequence@Base 4:5.24.3-deepin.1.9
 _ZN4KWin6TabBox6TabBox22getAllClientIsMinisizeEv@Base 4:5.24.3-deepin.1.9
 _ZN4KWin6TabBox6TabBox22oneStepThroughDesktopsEb@Base 4:5.24.3-deepin.1.9
 _ZN4KWin6TabBox6TabBox22oneStepThroughDesktopsEbNS_10TabBoxModeE@Base 4:5.24.3-deepin.1.9
 _ZN4KWin6TabBox6TabBox22slotWalkThroughWindowsEv@Base 4:5.24.3-deepin.1.9
 _ZN4KWin6TabBox6TabBox23saveAllClientIsMinisizeEv@Base 4:5.24.3-deepin.1.9
 _ZN4KWin6TabBox6TabBox23slotWalkThroughDesktopsEv@Base 4:5.24.3-deepin.1.9
 _ZN4KWin6TabBox6TabBox24KDEOneStepThroughWindowsEbNS_10TabBoxModeE@Base 4:5.24.3-deepin.1.9
 _ZN4KWin6TabBox6TabBox24navigatingThroughWindowsEbRK12QKeySequenceNS_10TabBoxModeE@Base 4:5.24.3-deepin.1.9
 _ZN4KWin6TabBox6TabBox24startWalkThroughDesktopsENS_10TabBoxModeE@Base 4:5.24.3-deepin.1.9
 _ZN4KWin6TabBox6TabBox24startWalkThroughDesktopsEv@Base 4:5.24.3-deepin.1.9
 _ZN4KWin6TabBox6TabBox25oneStepThroughDesktopListEb@Base 4:5.24.3-deepin.1.9
 _ZN4KWin6TabBox6TabBox26slotWalkBackThroughWindowsEv@Base 4:5.24.3-deepin.1.9
 _ZN4KWin6TabBox6TabBox26slotWalkThroughDesktopListEv@Base 4:5.24.3-deepin.1.9
 _ZN4KWin6TabBox6TabBox26startKDEWalkThroughWindowsENS_10TabBoxModeE@Base 4:5.24.3-deepin.1.9
 _ZN4KWin6TabBox6TabBox27slotWalkBackThroughDesktopsEv@Base 4:5.24.3-deepin.1.9
 _ZN4KWin6TabBox6TabBox27startWalkThroughDesktopListEv@Base 4:5.24.3-deepin.1.9
 _ZN4KWin6TabBox6TabBox30slotWalkBackThroughDesktopListEv@Base 4:5.24.3-deepin.1.9
 _ZN4KWin6TabBox6TabBox32slotWalkThroughCurrentAppWindowsEv@Base 4:5.24.3-deepin.1.9
 _ZN4KWin6TabBox6TabBox33slotWalkThroughWindowsAlternativeEv@Base 4:5.24.3-deepin.1.9
 _ZN4KWin6TabBox6TabBox36slotWalkBackThroughCurrentAppWindowsEv@Base 4:5.24.3-deepin.1.9
 _ZN4KWin6TabBox6TabBox37slotWalkBackThroughWindowsAlternativeEv@Base 4:5.24.3-deepin.1.9
 _ZN4KWin6TabBox6TabBox3keyIMS1_FvvEEEvPKcT_RK12QKeySequence@Base 4:5.24.3-deepin.1.9
 _ZN4KWin6TabBox6TabBox43slotWalkThroughCurrentAppWindowsAlternativeEv@Base 4:5.24.3-deepin.1.9
 _ZN4KWin6TabBox6TabBox47slotWalkBackThroughCurrentAppWindowsAlternativeEv@Base 4:5.24.3-deepin.1.9
 _ZN4KWin6TabBox6TabBox4hideEb@Base 4:5.24.3-deepin.1.9
 _ZN4KWin6TabBox6TabBox4showEv@Base 4:5.24.3-deepin.1.9
 _ZN4KWin6TabBox6TabBox5closeEb@Base 4:5.24.3-deepin.1.9
 _ZN4KWin6TabBox6TabBox5resetEb@Base 4:5.24.3-deepin.1.9
 _ZN4KWin6TabBox6TabBox6acceptEb@Base 4:5.24.3-deepin.1.9
 _ZN4KWin6TabBox6TabBox6createEP7QObject@Base 4:5.24.3-deepin.1.9
 _ZN4KWin6TabBox6TabBox6s_selfE@Base 4:5.24.3-deepin.1.9
 _ZN4KWin6TabBox6TabBox6toggleENS_14ElectricBorderE@Base 4:5.24.3-deepin.1.9
 _ZN4KWin6TabBox6TabBox7setModeENS_10TabBoxModeE@Base 4:5.24.3-deepin.1.9
 _ZN4KWin6TabBox6TabBox8keyPressEi@Base 4:5.24.3-deepin.1.9
 _ZN4KWin6TabBox6TabBox8nextPrevEb@Base 4:5.24.3-deepin.1.9
 _ZN4KWin6TabBox6TabBoxC1EP7QObject@Base 4:5.24.3-deepin.1.9
 _ZN4KWin6TabBox6TabBoxC2EP7QObject@Base 4:5.24.3-deepin.1.9
 _ZN4KWin6TabBox6TabBoxD0Ev@Base 4:5.24.3-deepin.1.9
 _ZN4KWin6TabBox6TabBoxD1Ev@Base 4:5.24.3-deepin.1.9
 _ZN4KWin6TabBox6TabBoxD2Ev@Base 4:5.24.3-deepin.1.9
 _ZN4KWin7Cursors10hideCursorEv@Base 4:5.24.3-deepin.1.9
 _ZN4KWin7Cursors10showCursorEv@Base 4:5.24.3-deepin.1.9
 _ZN4KWin7Cursors11qt_metacallEN11QMetaObject4CallEiPPv@Base 4:5.24.3-deepin.1.9
 _ZN4KWin7Cursors11qt_metacastEPKc@Base 4:5.24.3-deepin.1.9
 _ZN4KWin7Cursors12removeCursorEPNS_6CursorE@Base 4:5.24.3-deepin.1.9
 _ZN4KWin7Cursors13hiddenChangedEv@Base 4:5.24.3-deepin.1.9
 _ZN4KWin7Cursors15positionChangedEPNS_6CursorERK6QPoint@Base 4:5.24.3-deepin.1.9
 _ZN4KWin7Cursors16setCurrentCursorEPNS_6CursorE@Base 4:5.24.3-deepin.1.9
 _ZN4KWin7Cursors16staticMetaObjectE@Base 4:5.24.3-deepin.1.9
 _ZN4KWin7Cursors20currentCursorChangedEPNS_6CursorE@Base 4:5.24.3-deepin.1.9
 _ZN4KWin7Cursors24emitCurrentCursorChangedEv@Base 4:5.24.3-deepin.1.9
 _ZN4KWin7Cursors4selfEv@Base 4:5.24.3-deepin.1.9
 _ZN4KWin7Cursors6s_selfE@Base 4:5.24.3-deepin.1.9
 _ZN4KWin7Cursors9addCursorEPNS_6CursorE@Base 4:5.24.3-deepin.1.9
 _ZN4KWin7Deleted11qt_metacallEN11QMetaObject4CallEiPPv@Base 4:5.24.3-deepin.1.9
 _ZN4KWin7Deleted11qt_metacastEPKc@Base 4:5.24.3-deepin.1.9
 _ZN4KWin7Deleted11unrefWindowEv@Base 4:5.24.3-deepin.1.9
 _ZN4KWin7Deleted13copyToDeletedEPNS_8ToplevelE@Base 4:5.24.3-deepin.1.9
 _ZN4KWin7Deleted16mainClientClosedEPNS_8ToplevelE@Base 4:5.24.3-deepin.1.9
 _ZN4KWin7Deleted16staticMetaObjectE@Base 4:5.24.3-deepin.1.9
 _ZN4KWin7Deleted6createEPNS_8ToplevelE@Base 4:5.24.3-deepin.1.9
 _ZN4KWin7Deleted7discardEv@Base 4:5.24.3-deepin.1.9
 _ZN4KWin7DeletedC1Ev@Base 4:5.24.3-deepin.1.9
 _ZN4KWin7DeletedC2Ev@Base 4:5.24.3-deepin.1.9
 _ZN4KWin7DeletedD0Ev@Base 4:5.24.3-deepin.1.9
 _ZN4KWin7DeletedD1Ev@Base 4:5.24.3-deepin.1.9
 _ZN4KWin7DeletedD2Ev@Base 4:5.24.3-deepin.1.9
 _ZN4KWin7Options10loadConfigEv@Base 4:5.24.3-deepin.1.9
 _ZN4KWin7Options11qt_metacallEN11QMetaObject4CallEiPPv@Base 4:5.24.3-deepin.1.9
 _ZN4KWin7Options11qt_metacastEPKc@Base 4:5.24.3-deepin.1.9
 _ZN4KWin7Options12mouseCommandERK7QStringb@Base 4:5.24.3-deepin.1.9
 _ZN4KWin7Options12setAutoRaiseEb@Base 4:5.24.3-deepin.1.9
 _ZN4KWin7Options12setPlacementEi@Base 4:5.24.3-deepin.1.9
 _ZN4KWin7Options13configChangedEv@Base 4:5.24.3-deepin.1.9
 _ZN4KWin7Options13setClickRaiseEb@Base 4:5.24.3-deepin.1.9
 _ZN4KWin7Options13setShadeHoverEb@Base 4:5.24.3-deepin.1.9
 _ZN4KWin7Options13syncFromKcfgcEv@Base 4:5.24.3-deepin.1.9
 _ZN4KWin7Options14setCommandAll1ENS0_12MouseCommandE@Base 4:5.24.3-deepin.1.9
 _ZN4KWin7Options14setCommandAll2ENS0_12MouseCommandE@Base 4:5.24.3-deepin.1.9
 _ZN4KWin7Options14setCommandAll3ENS0_12MouseCommandE@Base 4:5.24.3-deepin.1.9
 _ZN4KWin7Options14setFocusPolicyENS0_11FocusPolicyE@Base 4:5.24.3-deepin.1.9
 _ZN4KWin7Options14updateSettingsEv@Base 4:5.24.3-deepin.1.9
 _ZN4KWin7Options15windowOperationERK7QStringb@Base 4:5.24.3-deepin.1.9
 _ZN4KWin7Options16autoRaiseChangedEv@Base 4:5.24.3-deepin.1.9
 _ZN4KWin7Options16placementChangedEv@Base 4:5.24.3-deepin.1.9
 _ZN4KWin7Options16setGlSmoothScaleEi@Base 4:5.24.3-deepin.1.9
 _ZN4KWin7Options16setLatencyPolicyENS_13LatencyPolicyE@Base 4:5.24.3-deepin.1.9
 _ZN4KWin7Options16staticMetaObjectE@Base 4:5.24.3-deepin.1.9
 _ZN4KWin7Options17clickRaiseChangedEv@Base 4:5.24.3-deepin.1.9
 _ZN4KWin7Options17mouseWheelCommandERK7QString@Base 4:5.24.3-deepin.1.9
 _ZN4KWin7Options17setBorderSnapZoneEi@Base 4:5.24.3-deepin.1.9
 _ZN4KWin7Options17setCenterSnapZoneEi@Base 4:5.24.3-deepin.1.9
 _ZN4KWin7Options17setCommandWindow1ENS0_12MouseCommandE@Base 4:5.24.3-deepin.1.9
 _ZN4KWin7Options17setCommandWindow2ENS0_12MouseCommandE@Base 4:5.24.3-deepin.1.9
 _ZN4KWin7Options17setCommandWindow3ENS0_12MouseCommandE@Base 4:5.24.3-deepin.1.9
 _ZN4KWin7Options17setCondensedTitleEb@Base 4:5.24.3-deepin.1.9
 _ZN4KWin7Options17setHiddenPreviewsEi@Base 4:5.24.3-deepin.1.9
 _ZN4KWin7Options17setUseCompositingEb@Base 4:5.24.3-deepin.1.9
 _ZN4KWin7Options17setWindowSnapZoneEi@Base 4:5.24.3-deepin.1.9
 _ZN4KWin7Options17shadeHoverChangedEv@Base 4:5.24.3-deepin.1.9
 _ZN4KWin7Options18commandAll1ChangedEv@Base 4:5.24.3-deepin.1.9
 _ZN4KWin7Options18commandAll2ChangedEv@Base 4:5.24.3-deepin.1.9
 _ZN4KWin7Options18commandAll3ChangedEv@Base 4:5.24.3-deepin.1.9
 _ZN4KWin7Options18focusPolicyChangedEv@Base 4:5.24.3-deepin.1.9
 _ZN4KWin7Options18setCompositingModeEi@Base 4:5.24.3-deepin.1.9
 _ZN4KWin7Options18setGlStrictBindingEb@Base 4:5.24.3-deepin.1.9
 _ZN4KWin7Options18setKeyCmdAllModKeyEj@Base 4:5.24.3-deepin.1.9
 _ZN4KWin7Options18setKillPingTimeoutEi@Base 4:5.24.3-deepin.1.9
 _ZN4KWin7Options19setRollOverDesktopsEb@Base 4:5.24.3-deepin.1.9
 _ZN4KWin7Options20glSmoothScaleChangedEv@Base 4:5.24.3-deepin.1.9
 _ZN4KWin7Options20latencyPolicyChangedEv@Base 4:5.24.3-deepin.1.9
 _ZN4KWin7Options20reparseConfigurationEv@Base 4:5.24.3-deepin.1.9
 _ZN4KWin7Options20setActiveMouseScreenEb@Base 4:5.24.3-deepin.1.9
 _ZN4KWin7Options20setAutoRaiseIntervalEi@Base 4:5.24.3-deepin.1.9
 _ZN4KWin7Options21animationSpeedChangedEv@Base 4:5.24.3-deepin.1.9
 _ZN4KWin7Options21borderSnapZoneChangedEv@Base 4:5.24.3-deepin.1.9
 _ZN4KWin7Options21centerSnapZoneChangedEv@Base 4:5.24.3-deepin.1.9
 _ZN4KWin7Options21commandWindow1ChangedEv@Base 4:5.24.3-deepin.1.9
 _ZN4KWin7Options21commandWindow2ChangedEv@Base 4:5.24.3-deepin.1.9
 _ZN4KWin7Options21commandWindow3ChangedEv@Base 4:5.24.3-deepin.1.9
 _ZN4KWin7Options21condensedTitleChangedEv@Base 4:5.24.3-deepin.1.9
 _ZN4KWin7Options21hiddenPreviewsChangedEv@Base 4:5.24.3-deepin.1.9
 _ZN4KWin7Options21loadCompositingConfigEb@Base 4:5.24.3-deepin.1.9
 _ZN4KWin7Options21setCommandWindowWheelENS0_12MouseCommandE@Base 4:5.24.3-deepin.1.9
 _ZN4KWin7Options21setDelayFocusIntervalEi@Base 4:5.24.3-deepin.1.9
 _ZN4KWin7Options21setGlPreferBufferSwapEc@Base 4:5.24.3-deepin.1.9
 _ZN4KWin7Options21setShadeHoverIntervalEi@Base 4:5.24.3-deepin.1.9
 _ZN4KWin7Options21useCompositingChangedEv@Base 4:5.24.3-deepin.1.9
 _ZN4KWin7Options21windowSnapZoneChangedEv@Base 4:5.24.3-deepin.1.9
 _ZN4KWin7Options22compositingModeChangedEv@Base 4:5.24.3-deepin.1.9
 _ZN4KWin7Options22glStrictBindingChangedEv@Base 4:5.24.3-deepin.1.9
 _ZN4KWin7Options22keyCmdAllModKeyChangedEv@Base 4:5.24.3-deepin.1.9
 _ZN4KWin7Options22killPingTimeoutChangedEv@Base 4:5.24.3-deepin.1.9
 _ZN4KWin7Options22setGlPlatformInterfaceENS_23OpenGLPlatformInterfaceE@Base 4:5.24.3-deepin.1.9
 _ZN4KWin7Options22setRenderTimeEstimatorENS_19RenderTimeEstimatorE@Base 4:5.24.3-deepin.1.9
 _ZN4KWin7Options22setSeparateScreenFocusEb@Base 4:5.24.3-deepin.1.9
 _ZN4KWin7Options22setXwaylandCrashPolicyENS_19XwaylandCrashPolicyE@Base 4:5.24.3-deepin.1.9
 _ZN4KWin7Options23rollOverDesktopsChangedEb@Base 4:5.24.3-deepin.1.9
 _ZN4KWin7Options23setElectricBorderTilingEb@Base 4:5.24.3-deepin.1.9
 _ZN4KWin7Options24activeMouseScreenChangedEv@Base 4:5.24.3-deepin.1.9
 _ZN4KWin7Options24autoRaiseIntervalChangedEv@Base 4:5.24.3-deepin.1.9
 _ZN4KWin7Options24setNextFocusPrefersMouseEb@Base 4:5.24.3-deepin.1.9
 _ZN4KWin7Options24setXwaylandMaxCrashCountEi@Base 4:5.24.3-deepin.1.9
 _ZN4KWin7Options25commandWindowWheelChangedEv@Base 4:5.24.3-deepin.1.9
 _ZN4KWin7Options25delayFocusIntervalChangedEv@Base 4:5.24.3-deepin.1.9
 _ZN4KWin7Options25glPreferBufferSwapChangedEv@Base 4:5.24.3-deepin.1.9
 _ZN4KWin7Options25reloadCompositingSettingsEb@Base 4:5.24.3-deepin.1.9
 _ZN4KWin7Options25setCommandActiveTitlebar1ENS0_12MouseCommandE@Base 4:5.24.3-deepin.1.9
 _ZN4KWin7Options25setCommandActiveTitlebar2ENS0_12MouseCommandE@Base 4:5.24.3-deepin.1.9
 _ZN4KWin7Options25setCommandActiveTitlebar3ENS0_12MouseCommandE@Base 4:5.24.3-deepin.1.9
 _ZN4KWin7Options25setElectricBorderMaximizeEb@Base 4:5.24.3-deepin.1.9
 _ZN4KWin7Options25shadeHoverIntervalChangedEv@Base 4:5.24.3-deepin.1.9
 _ZN4KWin7Options26glPlatformInterfaceChangedEv@Base 4:5.24.3-deepin.1.9
 _ZN4KWin7Options26renderTimeEstimatorChangedEv@Base 4:5.24.3-deepin.1.9
 _ZN4KWin7Options26separateScreenFocusChangedEb@Base 4:5.24.3-deepin.1.9
 _ZN4KWin7Options26setSnapOnlyWhenOverlappingEb@Base 4:5.24.3-deepin.1.9
 _ZN4KWin7Options26setWindowsBlockCompositingEb@Base 4:5.24.3-deepin.1.9
 _ZN4KWin7Options26xwaylandCrashPolicyChangedEv@Base 4:5.24.3-deepin.1.9
 _ZN4KWin7Options27electricBorderTilingChangedEv@Base 4:5.24.3-deepin.1.9
 _ZN4KWin7Options27setCommandInactiveTitlebar1ENS0_12MouseCommandE@Base 4:5.24.3-deepin.1.9
 _ZN4KWin7Options27setCommandInactiveTitlebar2ENS0_12MouseCommandE@Base 4:5.24.3-deepin.1.9
 _ZN4KWin7Options27setCommandInactiveTitlebar3ENS0_12MouseCommandE@Base 4:5.24.3-deepin.1.9
 _ZN4KWin7Options28nextFocusPrefersMouseChangedEv@Base 4:5.24.3-deepin.1.9
 _ZN4KWin7Options28setElectricBorderCornerRatioEf@Base 4:5.24.3-deepin.1.9
 _ZN4KWin7Options28setOperationTitlebarDblClickENS0_15WindowOperationE@Base 4:5.24.3-deepin.1.9
 _ZN4KWin7Options28xwaylandMaxCrashCountChangedEv@Base 4:5.24.3-deepin.1.9
 _ZN4KWin7Options29commandActiveTitlebar1ChangedEv@Base 4:5.24.3-deepin.1.9
 _ZN4KWin7Options29commandActiveTitlebar2ChangedEv@Base 4:5.24.3-deepin.1.9
 _ZN4KWin7Options29commandActiveTitlebar3ChangedEv@Base 4:5.24.3-deepin.1.9
 _ZN4KWin7Options29electricBorderMaximizeChangedEv@Base 4:5.24.3-deepin.1.9
 _ZN4KWin7Options29focusPolicyIsResonableChangedEv@Base 4:5.24.3-deepin.1.9
 _ZN4KWin7Options29setBorderlessMaximizedWindowsEb@Base 4:5.24.3-deepin.1.9
 _ZN4KWin7Options30setOperationMaxButtonLeftClickENS0_15WindowOperationE@Base 4:5.24.3-deepin.1.9
 _ZN4KWin7Options30snapOnlyWhenOverlappingChangedEv@Base 4:5.24.3-deepin.1.9
 _ZN4KWin7Options30windowsBlockCompositingChangedEv@Base 4:5.24.3-deepin.1.9
 _ZN4KWin7Options31commandInactiveTitlebar1ChangedEv@Base 4:5.24.3-deepin.1.9
 _ZN4KWin7Options31commandInactiveTitlebar2ChangedEv@Base 4:5.24.3-deepin.1.9
 _ZN4KWin7Options31commandInactiveTitlebar3ChangedEv@Base 4:5.24.3-deepin.1.9
 _ZN4KWin7Options31setFocusStealingPreventionLevelEi@Base 4:5.24.3-deepin.1.9
 _ZN4KWin7Options31setGlStrictBindingFollowsDriverEb@Base 4:5.24.3-deepin.1.9
 _ZN4KWin7Options31setOperationMaxButtonRightClickENS0_15WindowOperationE@Base 4:5.24.3-deepin.1.9
 _ZN4KWin7Options32electricBorderCornerRatioChangedEv@Base 4:5.24.3-deepin.1.9
 _ZN4KWin7Options32operationTitlebarDblClickChangedEv@Base 4:5.24.3-deepin.1.9
 _ZN4KWin7Options32setHideUtilityWindowsForInactiveEb@Base 4:5.24.3-deepin.1.9
 _ZN4KWin7Options32setOperationMaxButtonMiddleClickENS0_15WindowOperationE@Base 4:5.24.3-deepin.1.9
 _ZN4KWin7Options33borderlessMaximizedWindowsChangedEv@Base 4:5.24.3-deepin.1.9
 _ZN4KWin7Options34operationMaxButtonLeftClickChangedEv@Base 4:5.24.3-deepin.1.9
 _ZN4KWin7Options35focusStealingPreventionLevelChangedEv@Base 4:5.24.3-deepin.1.9
 _ZN4KWin7Options35glStrictBindingFollowsDriverChangedEv@Base 4:5.24.3-deepin.1.9
 _ZN4KWin7Options35operationMaxButtonRightClickChangedEv@Base 4:5.24.3-deepin.1.9
 _ZN4KWin7Options36hideUtilityWindowsForInactiveChangedEv@Base 4:5.24.3-deepin.1.9
 _ZN4KWin7Options36operationMaxButtonMiddleClickChangedEv@Base 4:5.24.3-deepin.1.9
 _ZN4KWin7Options46setMoveMinimizedWindowsToEndOfTabBoxFocusChainEb@Base 4:5.24.3-deepin.1.9
 _ZN4KWin7OptionsC1EP7QObject@Base 4:5.24.3-deepin.1.9
 _ZN4KWin7OptionsC2EP7QObject@Base 4:5.24.3-deepin.1.9
 _ZN4KWin7OptionsD0Ev@Base 4:5.24.3-deepin.1.9
 _ZN4KWin7OptionsD1Ev@Base 4:5.24.3-deepin.1.9
 _ZN4KWin7OptionsD2Ev@Base 4:5.24.3-deepin.1.9
 _ZN4KWin7Screens10updateSizeEv@Base 4:5.24.3-deepin.1.9
 _ZN4KWin7Screens11qt_metacallEN11QMetaObject4CallEiPPv@Base 4:5.24.3-deepin.1.9
 _ZN4KWin7Screens11qt_metacastEPKc@Base 4:5.24.3-deepin.1.9
 _ZN4KWin7Screens11sizeChangedEv@Base 4:5.24.3-deepin.1.9
 _ZN4KWin7Screens11updateCountEv@Base 4:5.24.3-deepin.1.9
 _ZN4KWin7Screens12countChangedEii@Base 4:5.24.3-deepin.1.9
 _ZN4KWin7Screens15geometryChangedEv@Base 4:5.24.3-deepin.1.9
 _ZN4KWin7Screens15maxScaleChangedEv@Base 4:5.24.3-deepin.1.9
 _ZN4KWin7Screens16staticMetaObjectE@Base 4:5.24.3-deepin.1.9
 _ZN4KWin7Screens4initEv@Base 4:5.24.3-deepin.1.9
 _ZN4KWin7Screens6createEP7QObject@Base 4:5.24.3-deepin.1.9
 _ZN4KWin7Screens6s_selfE@Base 4:5.24.3-deepin.1.9
 _ZN4KWin7Screens7changedEv@Base 4:5.24.3-deepin.1.9
 _ZN4KWin7Screens8setCountEi@Base 4:5.24.3-deepin.1.9
 _ZN4KWin7ScreensC1EP7QObject@Base 4:5.24.3-deepin.1.9
 _ZN4KWin7ScreensC2EP7QObject@Base 4:5.24.3-deepin.1.9
 _ZN4KWin7ScreensD0Ev@Base 4:5.24.3-deepin.1.9
 _ZN4KWin7ScreensD1Ev@Base 4:5.24.3-deepin.1.9
 _ZN4KWin7ScreensD2Ev@Base 4:5.24.3-deepin.1.9
 _ZN4KWin7Session11qt_metacallEN11QMetaObject4CallEiPPv@Base 4:5.24.3-deepin.1.9
 _ZN4KWin7Session11qt_metacastEPKc@Base 4:5.24.3-deepin.1.9
 _ZN4KWin7Session12devicePausedEm@Base 4:5.24.3-deepin.1.9
 _ZN4KWin7Session13activeChangedEb@Base 4:5.24.3-deepin.1.9
 _ZN4KWin7Session13deviceResumedEm@Base 4:5.24.3-deepin.1.9
 _ZN4KWin7Session16staticMetaObjectE@Base 4:5.24.3-deepin.1.9
 _ZN4KWin7Session5awokeEv@Base 4:5.24.3-deepin.1.9
 _ZN4KWin7Session6createENS0_4TypeEP7QObject@Base 4:5.24.3-deepin.1.9
 _ZN4KWin7Session6createEP7QObject@Base 4:5.24.3-deepin.1.9
 _ZN4KWin7SessionC1EP7QObject@Base 4:5.24.3-deepin.1.9
 _ZN4KWin7SessionC2EP7QObject@Base 4:5.24.3-deepin.1.9
 _ZN4KWin7optionsE@Base 4:5.24.3-deepin.1.9
 _ZN4KWin8LibInput10Connection10deactivateEv@Base 4:5.24.3-deepin.1.9
 _ZN4KWin8LibInput10Connection10eventsReadEv@Base 4:5.24.3-deepin.1.9
 _ZN4KWin8LibInput10Connection11deviceAddedEPNS0_6DeviceE@Base 4:5.24.3-deepin.1.9
 _ZN4KWin8LibInput10Connection11handleEventEv@Base 4:5.24.3-deepin.1.9
 _ZN4KWin8LibInput10Connection11qt_metacallEN11QMetaObject4CallEiPPv@Base 4:5.24.3-deepin.1.9
 _ZN4KWin8LibInput10Connection11qt_metacastEPKc@Base 4:5.24.3-deepin.1.9
 _ZN4KWin8LibInput10Connection13deviceRemovedEPNS0_6DeviceE@Base 4:5.24.3-deepin.1.9
 _ZN4KWin8LibInput10Connection13processEventsEv@Base 4:5.24.3-deepin.1.9
 _ZN4KWin8LibInput10Connection13updateScreensEv@Base 4:5.24.3-deepin.1.9
 _ZN4KWin8LibInput10Connection16staticMetaObjectE@Base 4:5.24.3-deepin.1.9
 _ZN4KWin8LibInput10Connection17applyDeviceConfigEPNS0_6DeviceE@Base 4:5.24.3-deepin.1.9
 _ZN4KWin8LibInput10Connection19applyScreenToDeviceEPNS0_6DeviceE@Base 4:5.24.3-deepin.1.9
 _ZN4KWin8LibInput10Connection31slotKGlobalSettingsNotifyChangeEii@Base 4:5.24.3-deepin.1.9
 _ZN4KWin8LibInput10Connection5setupEv@Base 4:5.24.3-deepin.1.9
 _ZN4KWin8LibInput10Connection6createEP7QObject@Base 4:5.24.3-deepin.1.9
 _ZN4KWin8LibInput10Connection6s_selfE@Base 4:5.24.3-deepin.1.9
 _ZN4KWin8LibInput10Connection7doSetupEv@Base 4:5.24.3-deepin.1.9
 _ZN4KWin8LibInput10ConnectionC1EP7QObject@Base 4:5.24.3-deepin.1.9
 _ZN4KWin8LibInput10ConnectionC1EPNS0_7ContextEP7QObject@Base 4:5.24.3-deepin.1.9
 _ZN4KWin8LibInput10ConnectionC2EP7QObject@Base 4:5.24.3-deepin.1.9
 _ZN4KWin8LibInput10ConnectionC2EPNS0_7ContextEP7QObject@Base 4:5.24.3-deepin.1.9
 _ZN4KWin8LibInput10ConnectionD0Ev@Base 4:5.24.3-deepin.1.9
 _ZN4KWin8LibInput10ConnectionD1Ev@Base 4:5.24.3-deepin.1.9
 _ZN4KWin8LibInput10ConnectionD2Ev@Base 4:5.24.3-deepin.1.9
 _ZN4KWin8LibInput6Device10setEnabledEb@Base 4:5.24.3-deepin.1.9
 _ZN4KWin8LibInput6Device10writeEntryI5QListIfEEEvRKNS0_9ConfigKeyERKT_@Base 4:5.24.3-deepin.1.9
 _ZN4KWin8LibInput6Device10writeEntryI7QStringEEvRKNS0_9ConfigKeyERKT_@Base 4:5.24.3-deepin.1.9
 _ZN4KWin8LibInput6Device10writeEntryIbEEvRKNS0_9ConfigKeyERKT_@Base 4:5.24.3-deepin.1.9
 _ZN4KWin8LibInput6Device10writeEntryIjEEvRKNS0_9ConfigKeyERKT_@Base 4:5.24.3-deepin.1.9
 _ZN4KWin8LibInput6Device11qt_metacallEN11QMetaObject4CallEiPPv@Base 4:5.24.3-deepin.1.9
 _ZN4KWin8LibInput6Device11qt_metacastEPKc@Base 4:5.24.3-deepin.1.9
 _ZN4KWin8LibInput6Device13setLeftHandedEb@Base 4:5.24.3-deepin.1.9
 _ZN4KWin8LibInput6Device13setOutputNameERK7QString@Base 4:5.24.3-deepin.1.9
 _ZN4KWin8LibInput6Device13setTapAndDragEb@Base 4:5.24.3-deepin.1.9
 _ZN4KWin8LibInput6Device13setTapToClickEb@Base 4:5.24.3-deepin.1.9
 _ZN4KWin8LibInput6Device14enabledChangedEv@Base 4:5.24.3-deepin.1.9
 _ZN4KWin8LibInput6Device14setClickMethodEb28libinput_config_click_method@Base 4:5.24.3-deepin.1.9
 _ZN4KWin8LibInput6Device14setOrientationEN2Qt17ScreenOrientationE@Base 4:5.24.3-deepin.1.9
 _ZN4KWin8LibInput6Device14setTapDragLockEb@Base 4:5.24.3-deepin.1.9
 _ZN4KWin8LibInput6Device15setScrollButtonEj@Base 4:5.24.3-deepin.1.9
 _ZN4KWin8LibInput6Device15setScrollFactorEd@Base 4:5.24.3-deepin.1.9
 _ZN4KWin8LibInput6Device15setScrollMethodEb29libinput_config_scroll_method@Base 4:5.24.3-deepin.1.9
 _ZN4KWin8LibInput6Device16setNaturalScrollEb@Base 4:5.24.3-deepin.1.9
 _ZN4KWin8LibInput6Device16staticMetaObjectE@Base 4:5.24.3-deepin.1.9
 _ZN4KWin8LibInput6Device17leftHandedChangedEv@Base 4:5.24.3-deepin.1.9
 _ZN4KWin8LibInput6Device17loadConfigurationEv@Base 4:5.24.3-deepin.1.9
 _ZN4KWin8LibInput6Device17outputNameChangedEv@Base 4:5.24.3-deepin.1.9
 _ZN4KWin8LibInput6Device17tapAndDragChangedEv@Base 4:5.24.3-deepin.1.9
 _ZN4KWin8LibInput6Device17tapToClickChangedEv@Base 4:5.24.3-deepin.1.9
 _ZN4KWin8LibInput6Device18clickMethodChangedEv@Base 4:5.24.3-deepin.1.9
 _ZN4KWin8LibInput6Device18orientationChangedEv@Base 4:5.24.3-deepin.1.9
 _ZN4KWin8LibInput6Device18setLmrTapButtonMapEb@Base 4:5.24.3-deepin.1.9
 _ZN4KWin8LibInput6Device18setMiddleEmulationEb@Base 4:5.24.3-deepin.1.9
 _ZN4KWin8LibInput6Device18tapDragLockChangedEv@Base 4:5.24.3-deepin.1.9
 _ZN4KWin8LibInput6Device19scrollButtonChangedEv@Base 4:5.24.3-deepin.1.9
 _ZN4KWin8LibInput6Device19scrollFactorChangedEv@Base 4:5.24.3-deepin.1.9
 _ZN4KWin8LibInput6Device19scrollMethodChangedEv@Base 4:5.24.3-deepin.1.9
 _ZN4KWin8LibInput6Device19tapButtonMapChangedEv@Base 4:5.24.3-deepin.1.9
 _ZN4KWin8LibInput6Device20naturalScrollChangedEv@Base 4:5.24.3-deepin.1.9
 _ZN4KWin8LibInput6Device20setCalibrationMatrixERK10QMatrix4x4@Base 4:5.24.3-deepin.1.9
 _ZN4KWin8LibInput6Device21setDisableWhileTypingEb@Base 4:5.24.3-deepin.1.9
 _ZN4KWin8LibInput6Device22middleEmulationChangedEv@Base 4:5.24.3-deepin.1.9
 _ZN4KWin8LibInput6Device22setPointerAccelerationEd@Base 4:5.24.3-deepin.1.9
 _ZN4KWin8LibInput6Device24calibrationMatrixChangedEv@Base 4:5.24.3-deepin.1.9
 _ZN4KWin8LibInput6Device25disableWhileTypingChangedEv@Base 4:5.24.3-deepin.1.9
 _ZN4KWin8LibInput6Device26pointerAccelerationChangedEv@Base 4:5.24.3-deepin.1.9
 _ZN4KWin8LibInput6Device29setPointerAccelerationProfileEb29libinput_config_accel_profile@Base 4:5.24.3-deepin.1.9
 _ZN4KWin8LibInput6Device33pointerAccelerationProfileChangedEv@Base 4:5.24.3-deepin.1.9
 _ZN4KWin8LibInput6Device7setLedsE6QFlagsINS_3LEDEE@Base 4:5.24.3-deepin.1.9
 _ZN4KWin8LibInput6Device9getDeviceEP15libinput_device@Base 4:5.24.3-deepin.1.9
 _ZN4KWin8LibInput6Device9s_devicesE@Base 4:5.24.3-deepin.1.9
 _ZN4KWin8LibInput6Device9setOutputEPNS_14AbstractOutputE@Base 4:5.24.3-deepin.1.9
 _ZN4KWin8LibInput6DeviceC1EP15libinput_deviceP7QObject@Base 4:5.24.3-deepin.1.9
 _ZN4KWin8LibInput6DeviceC2EP15libinput_deviceP7QObject@Base 4:5.24.3-deepin.1.9
 _ZN4KWin8LibInput6DeviceD0Ev@Base 4:5.24.3-deepin.1.9
 _ZN4KWin8LibInput6DeviceD1Ev@Base 4:5.24.3-deepin.1.9
 _ZN4KWin8LibInput6DeviceD2Ev@Base 4:5.24.3-deepin.1.9
 _ZN4KWin8Platform10touchFrameEv@Base 4:5.24.3-deepin.1.9
 _ZN4KWin8Platform11outputAddedEPNS_14AbstractOutputE@Base 4:5.24.3-deepin.1.9
 _ZN4KWin8Platform11qt_metacallEN11QMetaObject4CallEiPPv@Base 4:5.24.3-deepin.1.9
 _ZN4KWin8Platform11qt_metacastEPKc@Base 4:5.24.3-deepin.1.9
 _ZN4KWin8Platform11touchCancelEv@Base 4:5.24.3-deepin.1.9
 _ZN4KWin8Platform11touchMotionEiRK7QPointFj@Base 4:5.24.3-deepin.1.9
 _ZN4KWin8Platform11updateXTimeEv@Base 4:5.24.3-deepin.1.9
 _ZN4KWin8Platform11warpPointerERK7QPointF@Base 4:5.24.3-deepin.1.9
 _ZN4KWin8Platform12invertScreenEv@Base 4:5.24.3-deepin.1.9
 _ZN4KWin8Platform12keymapChangeEij@Base 4:5.24.3-deepin.1.9
 _ZN4KWin8Platform12readyChangedEb@Base 4:5.24.3-deepin.1.9
 _ZN4KWin8Platform13createOutlineEPNS_7OutlineE@Base 4:5.24.3-deepin.1.9
 _ZN4KWin8Platform13outputEnabledEPNS_14AbstractOutputE@Base 4:5.24.3-deepin.1.9
 _ZN4KWin8Platform13outputRemovedEPNS_14AbstractOutputE@Base 4:5.24.3-deepin.1.9
 _ZN4KWin8Platform13pointerMotionERK7QPointFj@Base 4:5.24.3-deepin.1.9
 _ZN4KWin8Platform14cursorRenderedERK5QRect@Base 4:5.24.3-deepin.1.9
 _ZN4KWin8Platform14outputDisabledEPNS_14AbstractOutputE@Base 4:5.24.3-deepin.1.9
 _ZN4KWin8Platform14screensQueriedEv@Base 4:5.24.3-deepin.1.9
 _ZN4KWin8Platform16createScreenEdgeEPNS_11ScreenEdgesE@Base 4:5.24.3-deepin.1.9
 _ZN4KWin8Platform16setPrimaryOutputEPNS_14AbstractOutputE@Base 4:5.24.3-deepin.1.9
 _ZN4KWin8Platform16staticMetaObjectE@Base 4:5.24.3-deepin.1.9
 _ZN4KWin8Platform17keyboardModifiersEjjjj@Base 4:5.24.3-deepin.1.9
 _ZN4KWin8Platform18applyOutputChangesERKNS_19WaylandOutputConfigE@Base 4:5.24.3-deepin.1.9
 _ZN4KWin8Platform18createInputBackendEv@Base 4:5.24.3-deepin.1.9
 _ZN4KWin8Platform18keyboardKeyPressedEjj@Base 4:5.24.3-deepin.1.9
 _ZN4KWin8Platform18setSceneEglDisplayEPv@Base 4:5.24.3-deepin.1.9
 _ZN4KWin8Platform19cancelTouchSequenceEv@Base 4:5.24.3-deepin.1.9
 _ZN4KWin8Platform19createOpenGLBackendEv@Base 4:5.24.3-deepin.1.9
 _ZN4KWin8Platform19createOverlayWindowEv@Base 4:5.24.3-deepin.1.9
 _ZN4KWin8Platform19createVirtualOutputERK7QStringRK5QSized@Base 4:5.24.3-deepin.1.9
 _ZN4KWin8Platform19keyboardKeyReleasedEjj@Base 4:5.24.3-deepin.1.9
 _ZN4KWin8Platform19pointerAxisVerticalEdjiNS_16InputRedirection17PointerAxisSourceE@Base 4:5.24.3-deepin.1.9
 _ZN4KWin8Platform19removeVirtualOutputEPNS_14AbstractOutputE@Base 4:5.24.3-deepin.1.9
 _ZN4KWin8Platform20createEffectsHandlerEPNS_10CompositorEPNS_5SceneE@Base 4:5.24.3-deepin.1.9
 _ZN4KWin8Platform20createPlatformCursorEP7QObject@Base 4:5.24.3-deepin.1.9
 _ZN4KWin8Platform20pointerButtonPressedEjj@Base 4:5.24.3-deepin.1.9
 _ZN4KWin8Platform20primaryOutputChangedEPNS_14AbstractOutputE@Base 4:5.24.3-deepin.1.9
 _ZN4KWin8Platform20requestOutputsChangeEPN14KWaylandServer30OutputConfigurationV2InterfaceE@Base 4:5.24.3-deepin.1.9
 _ZN4KWin8Platform20triggerCursorRepaintEv@Base 4:5.24.3-deepin.1.9
 _ZN4KWin8Platform21createOpenGLSafePointENS0_15OpenGLSafePointE@Base 4:5.24.3-deepin.1.9
 _ZN4KWin8Platform21createQPainterBackendEv@Base 4:5.24.3-deepin.1.9
 _ZN4KWin8Platform21pointerAxisHorizontalEdjiNS_16InputRedirection17PointerAxisSourceE@Base 4:5.24.3-deepin.1.9
 _ZN4KWin8Platform21pointerButtonReleasedEjj@Base 4:5.24.3-deepin.1.9
 _ZN4KWin8Platform22processPinchGestureEndEj@Base 4:5.24.3-deepin.1.9
 _ZN4KWin8Platform22processSwipeGestureEndEj@Base 4:5.24.3-deepin.1.9
 _ZN4KWin8Platform24processPinchGestureBeginEij@Base 4:5.24.3-deepin.1.9
 _ZN4KWin8Platform24processSwipeGestureBeginEij@Base 4:5.24.3-deepin.1.9
 _ZN4KWin8Platform25processPinchGestureUpdateEddRK6QSizeFj@Base 4:5.24.3-deepin.1.9
 _ZN4KWin8Platform25processSwipeGestureUpdateERK6QSizeFj@Base 4:5.24.3-deepin.1.9
 _ZN4KWin8Platform25setupActionForGlobalAccelEP7QAction@Base 4:5.24.3-deepin.1.9
 _ZN4KWin8Platform28processPinchGestureCancelledEj@Base 4:5.24.3-deepin.1.9
 _ZN4KWin8Platform28processSwipeGestureCancelledEj@Base 4:5.24.3-deepin.1.9
 _ZN4KWin8Platform28setPerScreenRenderingEnabledEb@Base 4:5.24.3-deepin.1.9
 _ZN4KWin8Platform29setSceneEglGlobalShareContextEPv@Base 4:5.24.3-deepin.1.9
 _ZN4KWin8Platform31startInteractiveWindowSelectionESt8functionIFvPNS_8ToplevelEEERK10QByteArray@Base 4:5.24.3-deepin.1.9
 _ZN4KWin8Platform33startInteractivePositionSelectionESt8functionIFvRK6QPointEE@Base 4:5.24.3-deepin.1.9
 _ZN4KWin8Platform7repaintERK5QRect@Base 4:5.24.3-deepin.1.9
 _ZN4KWin8Platform7touchUpEij@Base 4:5.24.3-deepin.1.9
 _ZN4KWin8Platform8setReadyEb@Base 4:5.24.3-deepin.1.9
 _ZN4KWin8Platform9touchDownEiRK7QPointFj@Base 4:5.24.3-deepin.1.9
 _ZN4KWin8PlatformC1EP7QObject@Base 4:5.24.3-deepin.1.9
 _ZN4KWin8PlatformC2EP7QObject@Base 4:5.24.3-deepin.1.9
 _ZN4KWin8PlatformD0Ev@Base 4:5.24.3-deepin.1.9
 _ZN4KWin8PlatformD1Ev@Base 4:5.24.3-deepin.1.9
 _ZN4KWin8PlatformD2Ev@Base 4:5.24.3-deepin.1.9
 _ZN4KWin8RuleBook10cleanupX11Ev@Base 4:5.24.3-deepin.1.9
 _ZN4KWin8RuleBook11discardUsedEPNS_14AbstractClientEb@Base 4:5.24.3-deepin.1.9
 _ZN4KWin8RuleBook11qt_metacallEN11QMetaObject4CallEiPPv@Base 4:5.24.3-deepin.1.9
 _ZN4KWin8RuleBook11qt_metacastEPKc@Base 4:5.24.3-deepin.1.9
 _ZN4KWin8RuleBook13initializeX11Ev@Base 4:5.24.3-deepin.1.9
 _ZN4KWin8RuleBook16staticMetaObjectE@Base 4:5.24.3-deepin.1.9
 _ZN4KWin8RuleBook18requestDiskStorageEv@Base 4:5.24.3-deepin.1.9
 _ZN4KWin8RuleBook18setUpdatesDisabledEb@Base 4:5.24.3-deepin.1.9
 _ZN4KWin8RuleBook21cleanupTemporaryRulesEv@Base 4:5.24.3-deepin.1.9
 _ZN4KWin8RuleBook21temporaryRulesMessageERK7QString@Base 4:5.24.3-deepin.1.9
 _ZN4KWin8RuleBook4editEPNS_14AbstractClientEb@Base 4:5.24.3-deepin.1.9
 _ZN4KWin8RuleBook4findEPKNS_14AbstractClientEb@Base 4:5.24.3-deepin.1.9
 _ZN4KWin8RuleBook4loadEv@Base 4:5.24.3-deepin.1.9
 _ZN4KWin8RuleBook4saveEv@Base 4:5.24.3-deepin.1.9
 _ZN4KWin8RuleBook6createEP7QObject@Base 4:5.24.3-deepin.1.9
 _ZN4KWin8RuleBook6s_selfE@Base 4:5.24.3-deepin.1.9
 _ZN4KWin8RuleBook9deleteAllEv@Base 4:5.24.3-deepin.1.9
 _ZN4KWin8RuleBookC1EP7QObject@Base 4:5.24.3-deepin.1.9
 _ZN4KWin8RuleBookC2EP7QObject@Base 4:5.24.3-deepin.1.9
 _ZN4KWin8RuleBookD0Ev@Base 4:5.24.3-deepin.1.9
 _ZN4KWin8RuleBookD1Ev@Base 4:5.24.3-deepin.1.9
 _ZN4KWin8RuleBookD2Ev@Base 4:5.24.3-deepin.1.9
 _ZN4KWin8Toplevel10addRepaintERK5QRect@Base 4:5.24.3-deepin.1.9
 _ZN4KWin8Toplevel10addRepaintERK7QRegion@Base 4:5.24.3-deepin.1.9
 _ZN4KWin8Toplevel10addRepaintEiiii@Base 4:5.24.3-deepin.1.9
 _ZN4KWin8Toplevel10setOpacityEd@Base 4:5.24.3-deepin.1.9
 _ZN4KWin8Toplevel10setSurfaceEPN14KWaylandServer16SurfaceInterfaceE@Base 4:5.24.3-deepin.1.9
 _ZN4KWin8Toplevel11checkOutputEv@Base 4:5.24.3-deepin.1.9
 _ZN4KWin8Toplevel11detectShapeEj@Base 4:5.24.3-deepin.1.9
 _ZN4KWin8Toplevel11qt_metacallEN11QMetaObject4CallEiPPv@Base 4:5.24.3-deepin.1.9
 _ZN4KWin8Toplevel11qt_metacastEPKc@Base 4:5.24.3-deepin.1.9
 _ZN4KWin8Toplevel11windowShownEPS0_@Base 4:5.24.3-deepin.1.9
 _ZN4KWin8Toplevel12deleteShadowEv@Base 4:5.24.3-deepin.1.9
 _ZN4KWin8Toplevel12shadeChangedEv@Base 4:5.24.3-deepin.1.9
 _ZN4KWin8Toplevel12updateShadowEv@Base 4:5.24.3-deepin.1.9
 _ZN4KWin8Toplevel12windowClosedEPS0_PNS_7DeletedE@Base 4:5.24.3-deepin.1.9
 _ZN4KWin8Toplevel12windowHiddenEPS0_@Base 4:5.24.3-deepin.1.9
 _ZN4KWin8Toplevel13copyToDeletedEPS0_@Base 4:5.24.3-deepin.1.9
 _ZN4KWin8Toplevel13resourceMatchEPKS0_S2_@Base 4:5.24.3-deepin.1.9
 _ZN4KWin8Toplevel13screenChangedEv@Base 4:5.24.3-deepin.1.9
 _ZN4KWin8Toplevel13shadowChangedEv@Base 4:5.24.3-deepin.1.9
 _ZN4KWin8Toplevel13shapedChangedEv@Base 4:5.24.3-deepin.1.9
 _ZN4KWin8Toplevel14addRepaintFullEv@Base 4:5.24.3-deepin.1.9
 _ZN4KWin8Toplevel14opacityChangedEPS0_d@Base 4:5.24.3-deepin.1.9
 _ZN4KWin8Toplevel14surfaceChangedEv@Base 4:5.24.3-deepin.1.9
 _ZN4KWin8Toplevel15addLayerRepaintERK5QRect@Base 4:5.24.3-deepin.1.9
 _ZN4KWin8Toplevel15addLayerRepaintERK7QRegion@Base 4:5.24.3-deepin.1.9
 _ZN4KWin8Toplevel15addLayerRepaintEiiii@Base 4:5.24.3-deepin.1.9
 _ZN4KWin8Toplevel15geometryChangedEv@Base 4:5.24.3-deepin.1.9
 _ZN4KWin8Toplevel15hasAlphaChangedEv@Base 4:5.24.3-deepin.1.9
 _ZN4KWin8Toplevel16getResourceClassEv@Base 4:5.24.3-deepin.1.9
 _ZN4KWin8Toplevel16setResourceClassERK10QByteArrayS3_@Base 4:5.24.3-deepin.1.9
 _ZN4KWin8Toplevel16setStackingOrderEi@Base 4:5.24.3-deepin.1.9
 _ZN4KWin8Toplevel16setupCompositingEv@Base 4:5.24.3-deepin.1.9
 _ZN4KWin8Toplevel16staticMetaObjectE@Base 4:5.24.3-deepin.1.9
 _ZN4KWin8Toplevel17finishCompositingENS_13ReleaseReasonE@Base 4:5.24.3-deepin.1.9
 _ZN4KWin8Toplevel17getWmClientLeaderEv@Base 4:5.24.3-deepin.1.9
 _ZN4KWin8Toplevel17getWmOpaqueRegionEv@Base 4:5.24.3-deepin.1.9
 _ZN4KWin8Toplevel17windowRoleChangedEv@Base 4:5.24.3-deepin.1.9
 _ZN4KWin8Toplevel18clientMessageEventEP26xcb_client_message_event_t@Base 4:5.24.3-deepin.1.9
 _ZN4KWin8Toplevel18deleteEffectWindowEv@Base 4:5.24.3-deepin.1.9
 _ZN4KWin8Toplevel18discardShapeRegionEv@Base 4:5.24.3-deepin.1.9
 _ZN4KWin8Toplevel18getWmClientMachineEv@Base 4:5.24.3-deepin.1.9
 _ZN4KWin8Toplevel18handleSplitOutlineEb@Base 4:5.24.3-deepin.1.9
 _ZN4KWin8Toplevel18readWmClientLeaderERNS_3Xcb8PropertyE@Base 4:5.24.3-deepin.1.9
 _ZN4KWin8Toplevel18windowClassChangedEv@Base 4:5.24.3-deepin.1.9
 _ZN4KWin8Toplevel19addWorkspaceRepaintERK5QRect@Base 4:5.24.3-deepin.1.9
 _ZN4KWin8Toplevel19addWorkspaceRepaintERK7QRegion@Base 4:5.24.3-deepin.1.9
 _ZN4KWin8Toplevel19addWorkspaceRepaintEiiii@Base 4:5.24.3-deepin.1.9
 _ZN4KWin8Toplevel19propertyNotifyEventEP27xcb_property_notify_event_t@Base 4:5.24.3-deepin.1.9
 _ZN4KWin8Toplevel19setReadyForPaintingEv@Base 4:5.24.3-deepin.1.9
 _ZN4KWin8Toplevel20frameGeometryChangedEPS0_RK5QRect@Base 4:5.24.3-deepin.1.9
 _ZN4KWin8Toplevel20geometryShapeChangedEPS0_RK5QRect@Base 4:5.24.3-deepin.1.9
 _ZN4KWin8Toplevel20stackingOrderChangedEv@Base 4:5.24.3-deepin.1.9
 _ZN4KWin8Toplevel21bufferGeometryChangedEPS0_RK5QRect@Base 4:5.24.3-deepin.1.9
 _ZN4KWin8Toplevel21clientGeometryChangedEPS0_RK5QRect@Base 4:5.24.3-deepin.1.9
 _ZN4KWin8Toplevel21getSkipCloseAnimationEv@Base 4:5.24.3-deepin.1.9
 _ZN4KWin8Toplevel21setSkipCloseAnimationEb@Base 4:5.24.3-deepin.1.9
 _ZN4KWin8Toplevel22readSkipCloseAnimationERNS_3Xcb8PropertyE@Base 4:5.24.3-deepin.1.9
 _ZN4KWin8Toplevel22setWaylandOpaqueRegionERK7QRegion@Base 4:5.24.3-deepin.1.9
 _ZN4KWin8Toplevel22visibleGeometryChangedEv@Base 4:5.24.3-deepin.1.9
 _ZN4KWin8Toplevel25disownDataPassedToDeletedEv@Base 4:5.24.3-deepin.1.9
 _ZN4KWin8Toplevel25skipCloseAnimationChangedEv@Base 4:5.24.3-deepin.1.9
 _ZN4KWin8Toplevel26inputTransformationChangedEv@Base 4:5.24.3-deepin.1.9
 _ZN4KWin8Toplevel26setupCheckOutputConnectionEv@Base 4:5.24.3-deepin.1.9
 _ZN4KWin8Toplevel27removeCheckOutputConnectionEv@Base 4:5.24.3-deepin.1.9
 _ZN4KWin8Toplevel7damagedEPS0_RK7QRegion@Base 4:5.24.3-deepin.1.9
 _ZN4KWin8Toplevel7elevateEb@Base 4:5.24.3-deepin.1.9
 _ZN4KWin8Toplevel8setDepthEi@Base 4:5.24.3-deepin.1.9
 _ZN4KWin8Toplevel9setOutputEPNS_14AbstractOutputE@Base 4:5.24.3-deepin.1.9
 _ZN4KWin8Toplevel9wmCommandEv@Base 4:5.24.3-deepin.1.9
 _ZN4KWin8ToplevelC1Ev@Base 4:5.24.3-deepin.1.9
 _ZN4KWin8ToplevelC2Ev@Base 4:5.24.3-deepin.1.9
 _ZN4KWin8ToplevelD0Ev@Base 4:5.24.3-deepin.1.9
 _ZN4KWin8ToplevelD1Ev@Base 4:5.24.3-deepin.1.9
 _ZN4KWin8ToplevelD2Ev@Base 4:5.24.3-deepin.1.9
 _ZN4KWin9GammaRamp3redEv@Base 4:5.24.3-deepin.1.9
 _ZN4KWin9GammaRamp4blueEv@Base 4:5.24.3-deepin.1.9
 _ZN4KWin9GammaRamp5greenEv@Base 4:5.24.3-deepin.1.9
 _ZN4KWin9GammaRampC1Ej@Base 4:5.24.3-deepin.1.9
 _ZN4KWin9GammaRampC2Ej@Base 4:5.24.3-deepin.1.9
 _ZN4KWin9Placement10placeSmartEPNS_14AbstractClientERK5QRectNS0_6PolicyE@Base 4:5.24.3-deepin.1.9
 _ZN4KWin9Placement11placeDialogEPNS_14AbstractClientERK5QRectNS0_6PolicyE@Base 4:5.24.3-deepin.1.9
 _ZN4KWin9Placement12placeUtilityEPNS_14AbstractClientERK5QRectNS0_6PolicyE@Base 4:5.24.3-deepin.1.9
 _ZN4KWin9Placement13placeAtRandomEPNS_14AbstractClientERK5QRectNS0_6PolicyE@Base 4:5.24.3-deepin.1.9
 _ZN4KWin9Placement13placeCascadedEPNS_14AbstractClientERK5QRectNS0_6PolicyE@Base 4:5.24.3-deepin.1.9
 _ZN4KWin9Placement13placeCenteredEPNS_14AbstractClientERK5QRectNS0_6PolicyE@Base 4:5.24.3-deepin.1.9
 _ZN4KWin9Placement14cascadeDesktopEv@Base 4:5.24.3-deepin.1.9
 _ZN4KWin9Placement14placeTransientEPNS_14AbstractClientE@Base 4:5.24.3-deepin.1.9
 _ZN4KWin9Placement14policyToStringENS0_6PolicyE@Base 4:5.24.3-deepin.1.9
 _ZN4KWin9Placement15placeMaximizingEPNS_14AbstractClientERK5QRectNS0_6PolicyE@Base 4:5.24.3-deepin.1.9
 _ZN4KWin9Placement15placeUnderMouseEPNS_14AbstractClientERK5QRectNS0_6PolicyE@Base 4:5.24.3-deepin.1.9
 _ZN4KWin9Placement15reinitCascadingEi@Base 4:5.24.3-deepin.1.9
 _ZN4KWin9Placement16unclutterDesktopEv@Base 4:5.24.3-deepin.1.9
 _ZN4KWin9Placement17placeOnMainWindowEPNS_14AbstractClientERK5QRectNS0_6PolicyE@Base 4:5.24.3-deepin.1.9
 _ZN4KWin9Placement17placeZeroCorneredEPNS_14AbstractClientERK5QRectNS0_6PolicyE@Base 4:5.24.3-deepin.1.9
 _ZN4KWin9Placement20placeOnScreenDisplayEPNS_14AbstractClientERK5QRect@Base 4:5.24.3-deepin.1.9
 _ZN4KWin9Placement5placeEPNS_14AbstractClientERK5QRect@Base 4:5.24.3-deepin.1.9
 _ZN4KWin9Placement5placeEPNS_14AbstractClientERK5QRectNS0_6PolicyES6_@Base 4:5.24.3-deepin.1.9
 _ZN4KWin9Placement6createEP7QObject@Base 4:5.24.3-deepin.1.9
 _ZN4KWin9Placement6s_selfE@Base 4:5.24.3-deepin.1.9
 _ZN4KWin9PlacementC1EP7QObject@Base 4:5.24.3-deepin.1.9
 _ZN4KWin9PlacementC2EP7QObject@Base 4:5.24.3-deepin.1.9
 _ZN4KWin9PlacementD0Ev@Base 4:5.24.3-deepin.1.9
 _ZN4KWin9PlacementD1Ev@Base 4:5.24.3-deepin.1.9
 _ZN4KWin9PlacementD2Ev@Base 4:5.24.3-deepin.1.9
 _ZN4KWin9Scripting10loadScriptERK7QStringS3_@Base 4:5.24.3-deepin.1.9
 _ZN4KWin9Scripting10runScriptsEv@Base 4:5.24.3-deepin.1.9
 _ZN4KWin9Scripting11qt_metacallEN11QMetaObject4CallEiPPv@Base 4:5.24.3-deepin.1.9
 _ZN4KWin9Scripting11qt_metacastEPKc@Base 4:5.24.3-deepin.1.9
 _ZN4KWin9Scripting12unloadScriptERK7QString@Base 4:5.24.3-deepin.1.9
 _ZN4KWin9Scripting15scriptDestroyedEP7QObject@Base 4:5.24.3-deepin.1.9
 _ZN4KWin9Scripting16staticMetaObjectE@Base 4:5.24.3-deepin.1.9
 _ZN4KWin9Scripting18queryScriptsToLoadEv@Base 4:5.24.3-deepin.1.9
 _ZN4KWin9Scripting18slotScriptsQueriedEv@Base 4:5.24.3-deepin.1.9
 _ZN4KWin9Scripting21loadDeclarativeScriptERK7QStringS3_@Base 4:5.24.3-deepin.1.9
 _ZN4KWin9Scripting24actionsForUserActionMenuEPNS_14AbstractClientEP5QMenu@Base 4:5.24.3-deepin.1.9
 _ZN4KWin9Scripting4initEv@Base 4:5.24.3-deepin.1.9
 _ZN4KWin9Scripting5startEv@Base 4:5.24.3-deepin.1.9
 _ZN4KWin9Scripting6createEP7QObject@Base 4:5.24.3-deepin.1.9
 _ZN4KWin9Scripting6s_selfE@Base 4:5.24.3-deepin.1.9
 _ZN4KWin9ScriptingC1EP7QObject@Base 4:5.24.3-deepin.1.9
 _ZN4KWin9ScriptingC2EP7QObject@Base 4:5.24.3-deepin.1.9
 _ZN4KWin9ScriptingD0Ev@Base 4:5.24.3-deepin.1.9
 _ZN4KWin9ScriptingD1Ev@Base 4:5.24.3-deepin.1.9
 _ZN4KWin9ScriptingD2Ev@Base 4:5.24.3-deepin.1.9
 _ZN4KWin9Unmanaged10initializeEv@Base 4:5.24.3-deepin.1.9
 _ZN4KWin9Unmanaged11isKeepAboveEv@Base 4:5.24.3-deepin.1.9
 _ZN4KWin9Unmanaged11qt_metacallEN11QMetaObject4CallEiPPv@Base 4:5.24.3-deepin.1.9
 _ZN4KWin9Unmanaged11qt_metacastEPKc@Base 4:5.24.3-deepin.1.9
 _ZN4KWin9Unmanaged11windowEventEP19xcb_generic_event_t@Base 4:5.24.3-deepin.1.9
 _ZN4KWin9Unmanaged15deleteUnmanagedEPS0_@Base 4:5.24.3-deepin.1.9
 _ZN4KWin9Unmanaged16staticMetaObjectE@Base 4:5.24.3-deepin.1.9
 _ZN4KWin9Unmanaged17damageNotifyEventEv@Base 4:5.24.3-deepin.1.9
 _ZN4KWin9Unmanaged20configureNotifyEventEP28xcb_configure_notify_event_t@Base 4:5.24.3-deepin.1.9
 _ZN4KWin9Unmanaged24fetchWindowForLockScreenEv@Base 4:5.24.3-deepin.1.9
 _ZN4KWin9Unmanaged5trackEj@Base 4:5.24.3-deepin.1.9
 _ZN4KWin9Unmanaged7releaseENS_13ReleaseReasonE@Base 4:5.24.3-deepin.1.9
 _ZN4KWin9Unmanaged9associateEv@Base 4:5.24.3-deepin.1.9
 _ZN4KWin9UnmanagedC1Ev@Base 4:5.24.3-deepin.1.9
 _ZN4KWin9UnmanagedC2Ev@Base 4:5.24.3-deepin.1.9
 _ZN4KWin9UnmanagedD0Ev@Base 4:5.24.3-deepin.1.9
 _ZN4KWin9UnmanagedD1Ev@Base 4:5.24.3-deepin.1.9
 _ZN4KWin9UnmanagedD2Ev@Base 4:5.24.3-deepin.1.9
 _ZN4KWin9Workspace10addDeletedEPNS_7DeletedEPNS_8ToplevelE@Base 4:5.24.3-deepin.1.9
 _ZN4KWin9Workspace10addToStackEPNS_8ToplevelE@Base 4:5.24.3-deepin.1.9
 _ZN4KWin9Workspace10cleanupX11Ev@Base 4:5.24.3-deepin.1.9
 _ZN4KWin9Workspace10delayFocusEv@Base 4:5.24.3-deepin.1.9
 _ZN4KWin9Workspace10gotFocusInEPKNS_14AbstractClientE@Base 4:5.24.3-deepin.1.9
 _ZN4KWin9Workspace10groupAddedEPNS_5GroupE@Base 4:5.24.3-deepin.1.9
 _ZN4KWin9Workspace11ActiveColorEv@Base 4:5.24.3-deepin.1.9
 _ZN4KWin9Workspace11clientAddedEPNS_14AbstractClientE@Base 4:5.24.3-deepin.1.9
 _ZN4KWin9Workspace11executeLockEv@Base 4:5.24.3-deepin.1.9
 _ZN4KWin9Workspace11focusToNullEv@Base 4:5.24.3-deepin.1.9
 _ZN4KWin9Workspace11isDarkThemeEv@Base 4:5.24.3-deepin.1.9
 _ZN4KWin9Workspace11lowerClientEPNS_14AbstractClientEb@Base 4:5.24.3-deepin.1.9
 _ZN4KWin9Workspace11qt_metacallEN11QMetaObject4CallEiPPv@Base 4:5.24.3-deepin.1.9
 _ZN4KWin9Workspace11qt_metacastEPKc@Base 4:5.24.3-deepin.1.9
 _ZN4KWin9Workspace11raiseClientEPNS_14AbstractClientEb@Base 4:5.24.3-deepin.1.9
 _ZN4KWin9Workspace11reconfigureEv@Base 4:5.24.3-deepin.1.9
 _ZN4KWin9Workspace11splitWindowE7QStringi@Base 4:5.24.3-deepin.1.9
 _ZN4KWin9Workspace11storeClientER12KConfigGroupiPNS_9X11ClientE@Base 4:5.24.3-deepin.1.9
 _ZN4KWin9Workspace11unconstrainEPNS_14AbstractClientES2_@Base 4:5.24.3-deepin.1.9
 _ZN4KWin9Workspace12addUnmanagedEPNS_9UnmanagedE@Base 4:5.24.3-deepin.1.9
 _ZN4KWin9Workspace12clientHiddenEPNS_14AbstractClientE@Base 4:5.24.3-deepin.1.9
 _ZN4KWin9Workspace12createClientEjb@Base 4:5.24.3-deepin.1.9
 _ZN4KWin9Workspace12initShortcutINS_10CompositorEMS2_FvvEEEvRK7QStringS7_RK12QKeySequencePT_T0_RK8QVariant@Base 4:5.24.3-deepin.1.9
 _ZN4KWin9Workspace12initShortcutINS_8PlatformEMS2_FvvEEEvRK7QStringS7_RK12QKeySequencePT_T0_RK8QVariant@Base 4:5.24.3-deepin.1.9
 _ZN4KWin9Workspace12initShortcutIS0_MS0_FvvEEEvRK7QStringS6_RK12QKeySequencePT_T0_RK8QVariant@Base 4:5.24.3-deepin.1.9
 _ZN4KWin9Workspace12initShortcutIS0_St5_BindIFMS0_Fv6QFlagsINS_13QuickTileFlagEEEPS0_S4_EEEEvRK7QStringSD_RK12QKeySequencePT_T0_RK8QVariant@Base 4:5.24.3-deepin.1.9
 _ZN4KWin9Workspace12initShortcutIS0_St5_BindIFMS0_Fv6QFlagsINS_13QuickTileFlagEEEPS0_S5_EEEEvRK7QStringSD_RK12QKeySequencePT_T0_RK8QVariant@Base 4:5.24.3-deepin.1.9
 _ZN4KWin9Workspace12initShortcutIS0_St5_BindIFMS0_FvNS0_9DirectionEEPS0_S3_EEEEvRK7QStringSB_RK12QKeySequencePT_T0_RK8QVariant@Base 4:5.24.3-deepin.1.9
 _ZN4KWin9Workspace12requestFocusEPNS_14AbstractClientEb@Base 4:5.24.3-deepin.1.9
 _ZN4KWin9Workspace12restoreFocusEv@Base 4:5.24.3-deepin.1.9
 _ZN4KWin9Workspace12setDarkThemeEb@Base 4:5.24.3-deepin.1.9
 _ZN4KWin9Workspace12setSplitModeEPNS_14AbstractClientEi@Base 4:5.24.3-deepin.1.9
 _ZN4KWin9Workspace12storeSessionERK7QStringNS_11SMSavePhaseE@Base 4:5.24.3-deepin.1.9
 _ZN4KWin9Workspace12switchWindowENS0_9DirectionE@Base 4:5.24.3-deepin.1.9
 _ZN4KWin9Workspace12switchWindowEPNS_14AbstractClientENS0_9DirectionE6QPointPNS_14VirtualDesktopE@Base 4:5.24.3-deepin.1.9
 _ZN4KWin9Workspace12takeActivityEPNS_14AbstractClientE6QFlagsINS0_12ActivityFlagEE@Base 4:5.24.3-deepin.1.9
 _ZN4KWin9Workspace12updateTabboxEv@Base 4:5.24.3-deepin.1.9
 _ZN4KWin9Workspace13clientRemovedEPNS_14AbstractClientE@Base 4:5.24.3-deepin.1.9
 _ZN4KWin9Workspace13configChangedEv@Base 4:5.24.3-deepin.1.9
 _ZN4KWin9Workspace13initShortcutsEv@Base 4:5.24.3-deepin.1.9
 _ZN4KWin9Workspace13initializeX11Ev@Base 4:5.24.3-deepin.1.9
 _ZN4KWin9Workspace13removeDeletedEPNS_7DeletedE@Base 4:5.24.3-deepin.1.9
 _ZN4KWin9Workspace14activateClientEPNS_14AbstractClientEb@Base 4:5.24.3-deepin.1.9
 _ZN4KWin9Workspace14addSessionInfoER12KConfigGroup@Base 4:5.24.3-deepin.1.9
 _ZN4KWin9Workspace14addShellClientEPNS_14AbstractClientE@Base 4:5.24.3-deepin.1.9
 _ZN4KWin9Workspace14deletedRemovedEPNS_7DeletedE@Base 4:5.24.3-deepin.1.9
 _ZN4KWin9Workspace14desktopResizedEv@Base 4:5.24.3-deepin.1.9
 _ZN4KWin9Workspace14replaceInStackEPNS_8ToplevelEPNS_7DeletedE@Base 4:5.24.3-deepin.1.9
 _ZN4KWin9Workspace14screensChangedEv@Base 4:5.24.3-deepin.1.9
 _ZN4KWin9Workspace14setActiveColorE7QString@Base 4:5.24.3-deepin.1.9
 _ZN4KWin9Workspace14setClientSplitEPNS_14AbstractClientEib@Base 4:5.24.3-deepin.1.9
 _ZN4KWin9Workspace14showWindowMenuERK5QRectPNS_14AbstractClientE@Base 4:5.24.3-deepin.1.9
 _ZN4KWin9Workspace14slotKillWindowEv@Base 4:5.24.3-deepin.1.9
 _ZN4KWin9Workspace14slotWindowMoveEv@Base 4:5.24.3-deepin.1.9
 _ZN4KWin9Workspace14switchToOutputEPNS_14AbstractOutputE@Base 4:5.24.3-deepin.1.9
 _ZN4KWin9Workspace14unmanagedAddedEPNS_9UnmanagedE@Base 4:5.24.3-deepin.1.9
 _ZN4KWin9Workspace14workspaceEventEP19xcb_generic_event_t@Base 4:5.24.3-deepin.1.9
 _ZN4KWin9Workspace14workspaceEventEP6QEvent@Base 4:5.24.3-deepin.1.9
 _ZN4KWin9Workspace15checkTransientsEj@Base 4:5.24.3-deepin.1.9
 _ZN4KWin9Workspace15clientActivatedEPNS_14AbstractClientE@Base 4:5.24.3-deepin.1.9
 _ZN4KWin9Workspace15createUnmanagedEj@Base 4:5.24.3-deepin.1.9
 _ZN4KWin9Workspace15forEachToplevelESt8functionIFvPNS_8ToplevelEEE@Base 4:5.24.3-deepin.1.9
 _ZN4KWin9Workspace15geometryChangedEv@Base 4:5.24.3-deepin.1.9
 _ZN4KWin9Workspace15isOnCurrentHeadEv@Base 4:5.24.3-deepin.1.9
 _ZN4KWin9Workspace15isShowSplitMenuEv@Base 4:5.24.3-deepin.1.9
 _ZN4KWin9Workspace15loadSessionInfoERK7QString@Base 4:5.24.3-deepin.1.9
 _ZN4KWin9Workspace15quickTileWindowE6QFlagsINS_13QuickTileFlagEE@Base 4:5.24.3-deepin.1.9
 _ZN4KWin9Workspace15removeFromStackEPNS_8ToplevelE@Base 4:5.24.3-deepin.1.9
 _ZN4KWin9Workspace15removeUnmanagedEPNS_9UnmanagedE@Base 4:5.24.3-deepin.1.9
 _ZN4KWin9Workspace15removeX11ClientEPNS_9X11ClientE@Base 4:5.24.3-deepin.1.9
 _ZN4KWin9Workspace15setActiveClientEPNS_14AbstractClientE@Base 4:5.24.3-deepin.1.9
 _ZN4KWin9Workspace15setActiveOutputEPNS_14AbstractOutputE@Base 4:5.24.3-deepin.1.9
 _ZN4KWin9Workspace15setActiveOutputERK6QPoint@Base 4:5.24.3-deepin.1.9
 _ZN4KWin9Workspace15slotReconfigureEv@Base 4:5.24.3-deepin.1.9
 _ZN4KWin9Workspace15slotWindowAboveEv@Base 4:5.24.3-deepin.1.9
 _ZN4KWin9Workspace15slotWindowBelowEv@Base 4:5.24.3-deepin.1.9
 _ZN4KWin9Workspace15slotWindowCloseEv@Base 4:5.24.3-deepin.1.9
 _ZN4KWin9Workspace15slotWindowLowerEv@Base 4:5.24.3-deepin.1.9
 _ZN4KWin9Workspace15slotWindowRaiseEv@Base 4:5.24.3-deepin.1.9
 _ZN4KWin9Workspace15slotWindowShadeEv@Base 4:5.24.3-deepin.1.9
 _ZN4KWin9Workspace15storeSubSessionERK7QString4QSetI10QByteArrayE@Base 4:5.24.3-deepin.1.9
 _ZN4KWin9Workspace15takeSessionInfoEPNS_9X11ClientE@Base 4:5.24.3-deepin.1.9
 _ZN4KWin9Workspace16activeSplitEventEv@Base 4:5.24.3-deepin.1.9
 _ZN4KWin9Workspace16adjustClientSizeEPNS_14AbstractClientE5QRectNS_7GravityE@Base 4:5.24.3-deepin.1.9
 _ZN4KWin9Workspace16cancelDelayFocusEv@Base 4:5.24.3-deepin.1.9
 _ZN4KWin9Workspace16changeBlurStatusEb@Base 4:5.24.3-deepin.1.9
 _ZN4KWin9Workspace16clientAreaUpdateEv@Base 4:5.24.3-deepin.1.9
 _ZN4KWin9Workspace16closeActivePopupEv@Base 4:5.24.3-deepin.1.9
 _ZN4KWin9Workspace16isDisableGestureEv@Base 4:5.24.3-deepin.1.9
 _ZN4KWin9Workspace16propagateClientsEb@Base 4:5.24.3-deepin.1.9
 _ZN4KWin9Workspace16setShowSplitLineEb5QRect@Base 4:5.24.3-deepin.1.9
 _ZN4KWin9Workspace16setWinSplitStateEPNS_14AbstractClientEb@Base 4:5.24.3-deepin.1.9
 _ZN4KWin9Workspace16slotDesktopAddedEPNS_14VirtualDesktopE@Base 4:5.24.3-deepin.1.9
 _ZN4KWin9Workspace16slotReloadConfigEv@Base 4:5.24.3-deepin.1.9
 _ZN4KWin9Workspace16slotWindowCenterEv@Base 4:5.24.3-deepin.1.9
 _ZN4KWin9Workspace16slotWindowMoveUpEv@Base 4:5.24.3-deepin.1.9
 _ZN4KWin9Workspace16slotWindowResizeEv@Base 4:5.24.3-deepin.1.9
 _ZN4KWin9Workspace16staticMetaObjectE@Base 4:5.24.3-deepin.1.9
 _ZN4KWin9Workspace16unmanagedRemovedEPNS_9UnmanagedE@Base 4:5.24.3-deepin.1.9
 _ZN4KWin9Workspace16updateClientAreaEv@Base 4:5.24.3-deepin.1.9
 _ZN4KWin9Workspace17addInternalClientEPNS_14InternalClientE@Base 4:5.24.3-deepin.1.9
 _ZN4KWin9Workspace17clearSplitOutlineEv@Base 4:5.24.3-deepin.1.9
 _ZN4KWin9Workspace17outputModeChangedEv@Base 4:5.24.3-deepin.1.9
 _ZN4KWin9Workspace17removeShellClientEPNS_14AbstractClientE@Base 4:5.24.3-deepin.1.9
 _ZN4KWin9Workspace17requestDelayFocusEPNS_14AbstractClientE@Base 4:5.24.3-deepin.1.9
 _ZN4KWin9Workspace17setShouldGetFocusEPNS_14AbstractClientE@Base 4:5.24.3-deepin.1.9
 _ZN4KWin9Workspace17setShowingDesktopEb@Base 4:5.24.3-deepin.1.9
 _ZN4KWin9Workspace17slotOutputEnabledEPNS_14AbstractOutputE@Base 4:5.24.3-deepin.1.9
 _ZN4KWin9Workspace17updateToolWindowsEb@Base 4:5.24.3-deepin.1.9
 _ZN4KWin9Workspace18activateNextClientEPNS_14AbstractClientE@Base 4:5.24.3-deepin.1.9
 _ZN4KWin9Workspace18activeColorChangedEv@Base 4:5.24.3-deepin.1.9
 _ZN4KWin9Workspace18captureWindowImageEiP11wl_resource@Base 4:5.24.3-deepin.1.9
 _ZN4KWin9Workspace18getDDEShellSurfaceEPNS_14AbstractClientE@Base 4:5.24.3-deepin.1.9
 _ZN4KWin9Workspace18loadSubSessionInfoERK7QString@Base 4:5.24.3-deepin.1.9
 _ZN4KWin9Workspace18lowerClientRequestEPNS_14AbstractClientE@Base 4:5.24.3-deepin.1.9
 _ZN4KWin9Workspace18lowerClientRequestEPNS_9X11ClientEN3NET13RequestSourceEj@Base 4:5.24.3-deepin.1.9
 _ZN4KWin9Workspace18raiseClientRequestEPNS_14AbstractClientEN3NET13RequestSourceEj@Base 4:5.24.3-deepin.1.9
 _ZN4KWin9Workspace18raiseOrLowerClientEPNS_14AbstractClientE@Base 4:5.24.3-deepin.1.9
 _ZN4KWin9Workspace18saveOldScreenSizesEv@Base 4:5.24.3-deepin.1.9
 _ZN4KWin9Workspace18sendClientToOutputEPNS_14AbstractClientEPNS_14AbstractOutputE@Base 4:5.24.3-deepin.1.9
 _ZN4KWin9Workspace18slotDesktopRemovedEPNS_14VirtualDesktopE@Base 4:5.24.3-deepin.1.9
 _ZN4KWin9Workspace18slotOutputDisabledEPNS_14AbstractOutputE@Base 4:5.24.3-deepin.1.9
 _ZN4KWin9Workspace18slotSetClientSplitEPNS_14AbstractClientEib@Base 4:5.24.3-deepin.1.9
 _ZN4KWin9Workspace18slotSwitchToScreenEv@Base 4:5.24.3-deepin.1.9
 _ZN4KWin9Workspace18slotWindowMaximizeEv@Base 4:5.24.3-deepin.1.9
 _ZN4KWin9Workspace18slotWindowMinimizeEv@Base 4:5.24.3-deepin.1.9
 _ZN4KWin9Workspace18slotWindowMoveDownEv@Base 4:5.24.3-deepin.1.9
 _ZN4KWin9Workspace18slotWindowMoveLeftEv@Base 4:5.24.3-deepin.1.9
 _ZN4KWin9Workspace18slotWindowNoBorderEv@Base 4:5.24.3-deepin.1.9
 _ZN4KWin9Workspace18slotWindowToScreenEv@Base 4:5.24.3-deepin.1.9
 _ZN4KWin9Workspace18updateWindowStatesEv@Base 4:5.24.3-deepin.1.9
 _ZN4KWin9Workspace18windowStateChangedEv@Base 4:5.24.3-deepin.1.9
 _ZN4KWin9Workspace19internalClientAddedEPNS_14InternalClientE@Base 4:5.24.3-deepin.1.9
 _ZN4KWin9Workspace19sendClientToDesktopEPNS_14AbstractClientEib@Base 4:5.24.3-deepin.1.9
 _ZN4KWin9Workspace19setMoveResizeClientEPNS_14AbstractClientE@Base 4:5.24.3-deepin.1.9
 _ZN4KWin9Workspace19setupWindowShortcutEPNS_14AbstractClientE@Base 4:5.24.3-deepin.1.9
 _ZN4KWin9Workspace19showApplicationMenuERK5QRectPNS_14AbstractClientEi@Base 4:5.24.3-deepin.1.9
 _ZN4KWin9Workspace19slotWindowMoveRightEv@Base 4:5.24.3-deepin.1.9
 _ZN4KWin9Workspace19slotWindowToDesktopEPNS_14VirtualDesktopE@Base 4:5.24.3-deepin.1.9
 _ZN4KWin9Workspace19updateStackingOrderEb@Base 4:5.24.3-deepin.1.9
 _ZN4KWin9Workspace19windowToNextDesktopEPNS_14AbstractClientE@Base 4:5.24.3-deepin.1.9
 _ZN4KWin9Workspace20adjustClientPositionEPNS_14AbstractClientE6QPointbd@Base 4:5.24.3-deepin.1.9
 _ZN4KWin9Workspace20blockStackingUpdatesEb@Base 4:5.24.3-deepin.1.9
 _ZN4KWin9Workspace20qtactivecolorChangedEv@Base 4:5.24.3-deepin.1.9
 _ZN4KWin9Workspace20removeAbstractClientEPNS_14AbstractClientE@Base 4:5.24.3-deepin.1.9
 _ZN4KWin9Workspace20removeInternalClientEPNS_14InternalClientE@Base 4:5.24.3-deepin.1.9
 _ZN4KWin9Workspace20setPreviewClientListERK5QListIPNS_14AbstractClientEE@Base 4:5.24.3-deepin.1.9
 _ZN4KWin9Workspace20slotTileActiveWindowEi@Base 4:5.24.3-deepin.1.9
 _ZN4KWin9Workspace20slotWindowFullScreenEv@Base 4:5.24.3-deepin.1.9
 _ZN4KWin9Workspace20slotWindowOperationsEv@Base 4:5.24.3-deepin.1.9
 _ZN4KWin9Workspace20stackingOrderChangedEv@Base 4:5.24.3-deepin.1.9
 _ZN4KWin9Workspace20updateXStackingOrderEv@Base 4:5.24.3-deepin.1.9
 _ZN4KWin9Workspace20workspaceInitializedEv@Base 4:5.24.3-deepin.1.9
 _ZN4KWin9Workspace21allowClientActivationEPKNS_14AbstractClientEjbb@Base 4:5.24.3-deepin.1.9
 _ZN4KWin9Workspace21clientShortcutUpdatedEPNS_14AbstractClientE@Base 4:5.24.3-deepin.1.9
 _ZN4KWin9Workspace21currentDesktopChangedEiPNS_14AbstractClientE@Base 4:5.24.3-deepin.1.9
 _ZN4KWin9Workspace21fixPositionAfterCrashEjPK24xcb_get_geometry_reply_t@Base 4:5.24.3-deepin.1.9
 _ZN4KWin9Workspace21forEachAbstractClientESt8functionIFvPNS_14AbstractClientEEE@Base 4:5.24.3-deepin.1.9
 _ZN4KWin9Workspace21internalClientRemovedEPNS_14InternalClientE@Base 4:5.24.3-deepin.1.9
 _ZN4KWin9Workspace21isUseSplitMenuToSplitEv@Base 4:5.24.3-deepin.1.9
 _ZN4KWin9Workspace21setWasUserInteractionEv@Base 4:5.24.3-deepin.1.9
 _ZN4KWin9Workspace21showingDesktopChangedEb@Base 4:5.24.3-deepin.1.9
 _ZN4KWin9Workspace21slotSwitchApplicationEb@Base 4:5.24.3-deepin.1.9
 _ZN4KWin9Workspace21slotToggleShowDesktopEv@Base 4:5.24.3-deepin.1.9
 _ZN4KWin9Workspace21slotUpdateToolWindowsEv@Base 4:5.24.3-deepin.1.9
 _ZN4KWin9Workspace21slotWindowToDesktopUpEv@Base 4:5.24.3-deepin.1.9
 _ZN4KWin9Workspace21updateCurrentActivityERK7QString@Base 4:5.24.3-deepin.1.9
 _ZN4KWin9Workspace22allowFullClientRaisingEPKNS_14AbstractClientEj@Base 4:5.24.3-deepin.1.9
 _ZN4KWin9Workspace22clientAttentionChangedEPNS_14AbstractClientEb@Base 4:5.24.3-deepin.1.9
 _ZN4KWin9Workspace22clientMinimizedChangedEPNS_14AbstractClientE@Base 4:5.24.3-deepin.1.9
 _ZN4KWin9Workspace22currentActivityChangedEv@Base 4:5.24.3-deepin.1.9
 _ZN4KWin9Workspace22desktopPresenceChangedEPNS_14AbstractClientEi@Base 4:5.24.3-deepin.1.9
 _ZN4KWin9Workspace22performWindowOperationEPNS_14AbstractClientENS_7Options15WindowOperationE@Base 4:5.24.3-deepin.1.9
 _ZN4KWin9Workspace22selectWmInputEventMaskEv@Base 4:5.24.3-deepin.1.9
 _ZN4KWin9Workspace22setupClientConnectionsEPNS_14AbstractClientE@Base 4:5.24.3-deepin.1.9
 _ZN4KWin9Workspace22slotLowerWindowOpacityEv@Base 4:5.24.3-deepin.1.9
 _ZN4KWin9Workspace22slotSwitchToNextScreenEv@Base 4:5.24.3-deepin.1.9
 _ZN4KWin9Workspace22slotSwitchToPrevScreenEv@Base 4:5.24.3-deepin.1.9
 _ZN4KWin9Workspace22slotWindowRaiseOrLowerEv@Base 4:5.24.3-deepin.1.9
 _ZN4KWin9Workspace22slotWindowToNextScreenEv@Base 4:5.24.3-deepin.1.9
 _ZN4KWin9Workspace22slotWindowToPrevScreenEv@Base 4:5.24.3-deepin.1.9
 _ZN4KWin9Workspace23checkClientAllowToSplitEPNS_14AbstractClientE@Base 4:5.24.3-deepin.1.9
 _ZN4KWin9Workspace23disableGestureForClientEb@Base 4:5.24.3-deepin.1.9
 _ZN4KWin9Workspace23setClientTitleBarHeightEPNS_14AbstractClientEi@Base 4:5.24.3-deepin.1.9
 _ZN4KWin9Workspace23setupWindowShortcutDoneEb@Base 4:5.24.3-deepin.1.9
 _ZN4KWin9Workspace23slotSetupWindowShortcutEv@Base 4:5.24.3-deepin.1.9
 _ZN4KWin9Workspace23slotWindowOnAllDesktopsEv@Base 4:5.24.3-deepin.1.9
 _ZN4KWin9Workspace23slotWindowToDesktopDownEv@Base 4:5.24.3-deepin.1.9
 _ZN4KWin9Workspace23slotWindowToDesktopLeftEv@Base 4:5.24.3-deepin.1.9
 _ZN4KWin9Workspace23slotWindowToNextDesktopEv@Base 4:5.24.3-deepin.1.9
 _ZN4KWin9Workspace23updateSplitOutlineStateEjjb@Base 4:5.24.3-deepin.1.9
 _ZN4KWin9Workspace23windowToPreviousDesktopEPNS_14AbstractClientE@Base 4:5.24.3-deepin.1.9
 _ZN4KWin9Workspace24checkStartupNotificationEjR14KStartupInfoIdR16KStartupInfoData@Base 4:5.24.3-deepin.1.9
 _ZN4KWin9Workspace24constrainedStackingOrderEv@Base 4:5.24.3-deepin.1.9
 _ZN4KWin9Workspace24previewClientListChangedE5QListIPNS_14AbstractClientEE@Base 4:5.24.3-deepin.1.9
 _ZN4KWin9Workspace24restackClientUnderActiveEPNS_14AbstractClientE@Base 4:5.24.3-deepin.1.9
 _ZN4KWin9Workspace24slotTouchPadTomoveWindowEii@Base 4:5.24.3-deepin.1.9
 _ZN4KWin9Workspace24slotWindowExpandVerticalEv@Base 4:5.24.3-deepin.1.9
 _ZN4KWin9Workspace24slotWindowShrinkVerticalEv@Base 4:5.24.3-deepin.1.9
 _ZN4KWin9Workspace24slotWindowToDesktopRightEv@Base 4:5.24.3-deepin.1.9
 _ZN4KWin9Workspace25markXStackingOrderAsDirtyEv@Base 4:5.24.3-deepin.1.9
 _ZN4KWin9Workspace25slotCurrentDesktopChangedEjj@Base 4:5.24.3-deepin.1.9
 _ZN4KWin9Workspace25slotIncreaseWindowOpacityEv@Base 4:5.24.3-deepin.1.9
 _ZN4KWin9Workspace26activateClientOnNewDesktopEPNS_14VirtualDesktopE@Base 4:5.24.3-deepin.1.9
 _ZN4KWin9Workspace26slotWindowExpandHorizontalEv@Base 4:5.24.3-deepin.1.9
 _ZN4KWin9Workspace26slotWindowMaximizeVerticalEv@Base 4:5.24.3-deepin.1.9
 _ZN4KWin9Workspace26slotWindowShrinkHorizontalEv@Base 4:5.24.3-deepin.1.9
 _ZN4KWin9Workspace27checkClientSupportFourSplitEPNS_14AbstractClientE@Base 4:5.24.3-deepin.1.9
 _ZN4KWin9Workspace27resetUpdateToolWindowsTimerEv@Base 4:5.24.3-deepin.1.9
 _ZN4KWin9Workspace27restoreSessionStackingOrderEPNS_9X11ClientE@Base 4:5.24.3-deepin.1.9
 _ZN4KWin9Workspace27slotActivateAttentionWindowEv@Base 4:5.24.3-deepin.1.9
 _ZN4KWin9Workspace27slotEndTouchPadToMoveWindowEv@Base 4:5.24.3-deepin.1.9
 _ZN4KWin9Workspace27slotWindowToPreviousDesktopEv@Base 4:5.24.3-deepin.1.9
 _ZN4KWin9Workspace27updateMinimizedOfTransientsEPNS_14AbstractClientE@Base 4:5.24.3-deepin.1.9
 _ZN4KWin9Workspace28lowerClientWithinApplicationEPNS_14AbstractClientE@Base 4:5.24.3-deepin.1.9
 _ZN4KWin9Workspace28raiseClientWithinApplicationEPNS_14AbstractClientE@Base 4:5.24.3-deepin.1.9
 _ZN4KWin9Workspace28slotWindowMaximizeHorizontalEv@Base 4:5.24.3-deepin.1.9
 _ZN4KWin9Workspace29clientDemandsAttentionChangedEPNS_14AbstractClientEb@Base 4:5.24.3-deepin.1.9
 _ZN4KWin9Workspace29findClientToActivateOnDesktopEPNS_14VirtualDesktopE@Base 4:5.24.3-deepin.1.9
 _ZN4KWin9Workspace31disableGlobalShortcutsForClientEb@Base 4:5.24.3-deepin.1.9
 _ZN4KWin9Workspace31setDisableGlobalShortcutsByUserEb@Base 4:5.24.3-deepin.1.9
 _ZN4KWin9Workspace31updateOnAllDesktopsOfTransientsEPNS_14AbstractClientE@Base 4:5.24.3-deepin.1.9
 _ZN4KWin9Workspace37stackScreenEdgesUnderOverrideRedirectEv@Base 4:5.24.3-deepin.1.9
 _ZN4KWin9Workspace37updateClientVisibilityOnDesktopChangeEPNS_14VirtualDesktopE@Base 4:5.24.3-deepin.1.9
 _ZN4KWin9Workspace4initEv@Base 4:5.24.3-deepin.1.9
 _ZN4KWin9Workspace5_selfE@Base 4:5.24.3-deepin.1.9
 _ZN4KWin9Workspace7restackEPNS_14AbstractClientES2_b@Base 4:5.24.3-deepin.1.9
 _ZN4KWin9Workspace9addClientEPNS_9X11ClientE@Base 4:5.24.3-deepin.1.9
 _ZN4KWin9Workspace9constrainEPNS_14AbstractClientES2_@Base 4:5.24.3-deepin.1.9
 _ZN4KWin9Workspace9hasClientEPKNS_14AbstractClientE@Base 4:5.24.3-deepin.1.9
 _ZN4KWin9WorkspaceC1Ev@Base 4:5.24.3-deepin.1.9
 _ZN4KWin9WorkspaceC2Ev@Base 4:5.24.3-deepin.1.9
 _ZN4KWin9WorkspaceD0Ev@Base 4:5.24.3-deepin.1.9
 _ZN4KWin9WorkspaceD1Ev@Base 4:5.24.3-deepin.1.9
 _ZN4KWin9WorkspaceD2Ev@Base 4:5.24.3-deepin.1.9
 _ZN4KWin9X11Client10checkGroupEPNS_5GroupEb@Base 4:5.24.3-deepin.1.9
 _ZN4KWin9X11Client10cleanupX11Ev@Base 4:5.24.3-deepin.1.9
 _ZN4KWin9X11Client10doMinimizeEv@Base 4:5.24.3-deepin.1.9
 _ZN4KWin9X11Client10doSetShadeENS_9ShadeModeE@Base 4:5.24.3-deepin.1.9
 _ZN4KWin9X11Client10handleSyncEv@Base 4:5.24.3-deepin.1.9
 _ZN4KWin9X11Client10hideClientEv@Base 4:5.24.3-deepin.1.9
 _ZN4KWin9X11Client10killWindowEv@Base 4:5.24.3-deepin.1.9
 _ZN4KWin9X11Client10menuHiddenEv@Base 4:5.24.3-deepin.1.9
 _ZN4KWin9X11Client10pingWindowEv@Base 4:5.24.3-deepin.1.9
 _ZN4KWin9X11Client10setCaptionERK7QStringb@Base 4:5.24.3-deepin.1.9
 _ZN4KWin9X11Client10showClientEv@Base 4:5.24.3-deepin.1.9
 _ZN4KWin9X11Client11closeWindowEv@Base 4:5.24.3-deepin.1.9
 _ZN4KWin9X11Client11doSetActiveEv@Base 4:5.24.3-deepin.1.9
 _ZN4KWin9X11Client11embedClientEjjjh@Base 4:5.24.3-deepin.1.9
 _ZN4KWin9X11Client11killProcessEbj@Base 4:5.24.3-deepin.1.9
 _ZN4KWin9X11Client11qt_metacallEN11QMetaObject4CallEiPPv@Base 4:5.24.3-deepin.1.9
 _ZN4KWin9X11Client11qt_metacastEPKc@Base 4:5.24.3-deepin.1.9
 _ZN4KWin9X11Client11setNoBorderEb@Base 4:5.24.3-deepin.1.9
 _ZN4KWin9X11Client11showRequestEv@Base 4:5.24.3-deepin.1.9
 _ZN4KWin9X11Client11updateShapeEv@Base 4:5.24.3-deepin.1.9
 _ZN4KWin9X11Client11windowEventEP19xcb_generic_event_t@Base 4:5.24.3-deepin.1.9
 _ZN4KWin9X11Client12addTransientEPNS_14AbstractClientE@Base 4:5.24.3-deepin.1.9
 _ZN4KWin9X11Client12deleteClientEPS0_@Base 4:5.24.3-deepin.1.9
 _ZN4KWin9X11Client12doSetDesktopEv@Base 4:5.24.3-deepin.1.9
 _ZN4KWin9X11Client12focusInEventEP20xcb_focus_in_event_t@Base 4:5.24.3-deepin.1.9
 _ZN4KWin9X11Client12internalHideEv@Base 4:5.24.3-deepin.1.9
 _ZN4KWin9X11Client12internalKeepEv@Base 4:5.24.3-deepin.1.9
 _ZN4KWin9X11Client12internalShowEv@Base 4:5.24.3-deepin.1.9
 _ZN4KWin9X11Client12setTransientEj@Base 4:5.24.3-deepin.1.9
 _ZN4KWin9X11Client13NETMoveResizeEiiN3NET9DirectionE@Base 4:5.24.3-deepin.1.9
 _ZN4KWin9X11Client13checkNoBorderEv@Base 4:5.24.3-deepin.1.9
 _ZN4KWin9X11Client13cleanGroupingEv@Base 4:5.24.3-deepin.1.9
 _ZN4KWin9X11Client13destroyClientEv@Base 4:5.24.3-deepin.1.9
 _ZN4KWin9X11Client13focusOutEventEP20xcb_focus_in_event_t@Base 4:5.24.3-deepin.1.9
 _ZN4KWin9X11Client13getMotifHintsEv@Base 4:5.24.3-deepin.1.9
 _ZN4KWin9X11Client13keyPressEventEjj@Base 4:5.24.3-deepin.1.9
 _ZN4KWin9X11Client13readTransientEv@Base 4:5.24.3-deepin.1.9
 _ZN4KWin9X11Client13releaseWindowEb@Base 4:5.24.3-deepin.1.9
 _ZN4KWin9X11Client13restackWindowEjiN3NET13RequestSourceEjb@Base 4:5.24.3-deepin.1.9
 _ZN4KWin9X11Client13setFullScreenEbb@Base 4:5.24.3-deepin.1.9
 _ZN4KWin9X11Client13updateCaptionEv@Base 4:5.24.3-deepin.1.9
 _ZN4KWin9X11Client13updateUrgencyEv@Base 4:5.24.3-deepin.1.9
 _ZN4KWin9X11Client14changeMaximizeEbbb@Base 4:5.24.3-deepin.1.9
 _ZN4KWin9X11Client14checkTransientEj@Base 4:5.24.3-deepin.1.9
 _ZN4KWin9X11Client14clientManagingEPS0_@Base 4:5.24.3-deepin.1.9
 _ZN4KWin9X11Client14detectNoBorderEv@Base 4:5.24.3-deepin.1.9
 _ZN4KWin9X11Client14doSetKeepAboveEv@Base 4:5.24.3-deepin.1.9
 _ZN4KWin9X11Client14doSetKeepBelowEv@Base 4:5.24.3-deepin.1.9
 _ZN4KWin9X11Client14doSetSkipPagerEv@Base 4:5.24.3-deepin.1.9
 _ZN4KWin9X11Client14getSyncCounterEv@Base 4:5.24.3-deepin.1.9
 _ZN4KWin9X11Client14readActivitiesERNS_3Xcb14StringPropertyE@Base 4:5.24.3-deepin.1.9
 _ZN4KWin9X11Client14setClientShownEb@Base 4:5.24.3-deepin.1.9
 _ZN4KWin9X11Client14updateUserTimeEj@Base 4:5.24.3-deepin.1.9
 _ZN4KWin9X11Client15checkActivitiesEv@Base 4:5.24.3-deepin.1.9
 _ZN4KWin9X11Client15fetchIconicNameEv@Base 4:5.24.3-deepin.1.9
 _ZN4KWin9X11Client15mapRequestEventEP23xcb_map_request_event_t@Base 4:5.24.3-deepin.1.9
 _ZN4KWin9X11Client15removeTransientEPNS_14AbstractClientE@Base 4:5.24.3-deepin.1.9
 _ZN4KWin9X11Client15sendSyncRequestEv@Base 4:5.24.3-deepin.1.9
 _ZN4KWin9X11Client15showContextHelpEv@Base 4:5.24.3-deepin.1.9
 _ZN4KWin9X11Client15updateMouseGrabEv@Base 4:5.24.3-deepin.1.9
 _ZN4KWin9X11Client16appMenuAvailableEv@Base 4:5.24.3-deepin.1.9
 _ZN4KWin9X11Client16applyWindowRulesEv@Base 4:5.24.3-deepin.1.9
 _ZN4KWin9X11Client16buttonPressEventEjiiiiiij@Base 4:5.24.3-deepin.1.9
 _ZN4KWin9X11Client16checkActiveModalEv@Base 4:5.24.3-deepin.1.9
 _ZN4KWin9X11Client16configureRequestEiiiiiib@Base 4:5.24.3-deepin.1.9
 _ZN4KWin9X11Client16createDecorationERK5QRect@Base 4:5.24.3-deepin.1.9
 _ZN4KWin9X11Client16doSetSkipTaskbarEv@Base 4:5.24.3-deepin.1.9
 _ZN4KWin9X11Client16enterNotifyEventEP24xcb_enter_notify_event_t@Base 4:5.24.3-deepin.1.9
 _ZN4KWin9X11Client16getWmNormalHintsEv@Base 4:5.24.3-deepin.1.9
 _ZN4KWin9X11Client16leaveNotifyEventEP24xcb_enter_notify_event_t@Base 4:5.24.3-deepin.1.9
 _ZN4KWin9X11Client16resizeDecorationEv@Base 4:5.24.3-deepin.1.9
 _ZN4KWin9X11Client16resizeWithChecksERK5QSize@Base 4:5.24.3-deepin.1.9
 _ZN4KWin9X11Client16resizeWithChecksEii13xcb_gravity_t@Base 4:5.24.3-deepin.1.9
 _ZN4KWin9X11Client16setupCompositingEv@Base 4:5.24.3-deepin.1.9
 _ZN4KWin9X11Client16showOnScreenEdgeEv@Base 4:5.24.3-deepin.1.9
 _ZN4KWin9X11Client16startupIdChangedEv@Base 4:5.24.3-deepin.1.9
 _ZN4KWin9X11Client16staticMetaObjectE@Base 4:5.24.3-deepin.1.9
 _ZN4KWin9X11Client16unmapNotifyEventEP24xcb_unmap_notify_event_t@Base 4:5.24.3-deepin.1.9
 _ZN4KWin9X11Client16updateActivitiesEb@Base 4:5.24.3-deepin.1.9
 _ZN4KWin9X11Client16updateDecorationEbb@Base 4:5.24.3-deepin.1.9
 _ZN4KWin9X11Client16updateInputShapeEv@Base 4:5.24.3-deepin.1.9
 _ZN4KWin9X11Client16updateVisibilityEv@Base 4:5.24.3-deepin.1.9
 _ZN4KWin9X11Client17damageNotifyEventEv@Base 4:5.24.3-deepin.1.9
 _ZN4KWin9X11Client17destroyDecorationEv@Base 4:5.24.3-deepin.1.9
 _ZN4KWin9X11Client17doSetOnActivitiesERK11QStringList@Base 4:5.24.3-deepin.1.9
 _ZN4KWin9X11Client17doSetSkipSwitcherEv@Base 4:5.24.3-deepin.1.9
 _ZN4KWin9X11Client17finishCompositingENS_13ReleaseReasonE@Base 4:5.24.3-deepin.1.9
 _ZN4KWin9X11Client17handleSyncTimeoutEv@Base 4:5.24.3-deepin.1.9
 _ZN4KWin9X11Client17motionNotifyEventEjiiiii@Base 4:5.24.3-deepin.1.9
 _ZN4KWin9X11Client17readFirstInTabBoxERNS_3Xcb8PropertyE@Base 4:5.24.3-deepin.1.9
 _ZN4KWin9X11Client17sendClientMessageEjjjjjj@Base 4:5.24.3-deepin.1.9
 _ZN4KWin9X11Client17updateInputWindowEv@Base 4:5.24.3-deepin.1.9
 _ZN4KWin9X11Client17updateWindowRulesE6QFlagsINS_5Rules4TypeEE@Base 4:5.24.3-deepin.1.9
 _ZN4KWin9X11Client18appMenuUnavailableEv@Base 4:5.24.3-deepin.1.9
 _ZN4KWin9X11Client18buttonReleaseEventEjiiiiii@Base 4:5.24.3-deepin.1.9
 _ZN4KWin9X11Client18check_active_modalE@Base 4:5.24.3-deepin.1.9
 _ZN4KWin9X11Client18clientMessageEventEP26xcb_client_message_event_t@Base 4:5.24.3-deepin.1.9
 _ZN4KWin9X11Client18destroyNotifyEventEP26xcb_destroy_notify_event_t@Base 4:5.24.3-deepin.1.9
 _ZN4KWin9X11Client18exportMappingStateEi@Base 4:5.24.3-deepin.1.9
 _ZN4KWin9X11Client18moveResizeInternalERK5QRectNS_14AbstractClient14MoveResizeModeE@Base 4:5.24.3-deepin.1.9
 _ZN4KWin9X11Client18updateFrameExtentsEv@Base 4:5.24.3-deepin.1.9
 _ZN4KWin9X11Client18updateWindowPixmapEv@Base 4:5.24.3-deepin.1.9
 _ZN4KWin9X11Client18verifyTransientForEjb@Base 4:5.24.3-deepin.1.9
 _ZN4KWin9X11Client19NETMoveResizeWindowEiiiii@Base 4:5.24.3-deepin.1.9
 _ZN4KWin9X11Client19cancelFocusOutTimerEv@Base 4:5.24.3-deepin.1.9
 _ZN4KWin9X11Client19clientFullScreenSetEPS0_bb@Base 4:5.24.3-deepin.1.9
 _ZN4KWin9X11Client19discardWindowPixmapEv@Base 4:5.24.3-deepin.1.9
 _ZN4KWin9X11Client19propertyNotifyEventEP27xcb_property_notify_event_t@Base 4:5.24.3-deepin.1.9
 _ZN4KWin9X11Client19setShortcutInternalEv@Base 4:5.24.3-deepin.1.9
 _ZN4KWin9X11Client19updateFirstInTabBoxEv@Base 4:5.24.3-deepin.1.9
 _ZN4KWin9X11Client19updateHiddenPreviewEv@Base 4:5.24.3-deepin.1.9
 _ZN4KWin9X11Client20checkGroupTransientsEv@Base 4:5.24.3-deepin.1.9
 _ZN4KWin9X11Client20invalidateDecorationEv@Base 4:5.24.3-deepin.1.9
 _ZN4KWin9X11Client20readShowOnScreenEdgeERNS_3Xcb8PropertyE@Base 4:5.24.3-deepin.1.9
 _ZN4KWin9X11Client20updateAllowedActionsEb@Base 4:5.24.3-deepin.1.9
 _ZN4KWin9X11Client20updateServerGeometryEv@Base 4:5.24.3-deepin.1.9
 _ZN4KWin9X11Client21configureRequestEventEP29xcb_configure_request_event_t@Base 4:5.24.3-deepin.1.9
 _ZN4KWin9X11Client21doSetDemandsAttentionEv@Base 4:5.24.3-deepin.1.9
 _ZN4KWin9X11Client21readTransientPropertyERNS_3Xcb12TransientForE@Base 4:5.24.3-deepin.1.9
 _ZN4KWin9X11Client21removeFromMainClientsEv@Base 4:5.24.3-deepin.1.9
 _ZN4KWin9X11Client21setClientFrameExtentsERK8NETStrut@Base 4:5.24.3-deepin.1.9
 _ZN4KWin9X11Client22sameAppWindowRoleMatchEPKS0_S2_b@Base 4:5.24.3-deepin.1.9
 _ZN4KWin9X11Client22setBlockingCompositingEb@Base 4:5.24.3-deepin.1.9
 _ZN4KWin9X11Client22updateShowOnScreenEdgeEv@Base 4:5.24.3-deepin.1.9
 _ZN4KWin9X11Client23belongToSameApplicationEPKS0_S2_6QFlagsINS_14AbstractClient20SameApplicationCheckEE@Base 4:5.24.3-deepin.1.9
 _ZN4KWin9X11Client23changeClientLeaderGroupEPNS_5GroupE@Base 4:5.24.3-deepin.1.9
 _ZN4KWin9X11Client23doInteractiveResizeSyncEv@Base 4:5.24.3-deepin.1.9
 _ZN4KWin9X11Client23establishCommandAllGrabEh@Base 4:5.24.3-deepin.1.9
 _ZN4KWin9X11Client24performInteractiveResizeEv@Base 4:5.24.3-deepin.1.9
 _ZN4KWin9X11Client24updateFullscreenMonitorsE21NETFullscreenMonitors@Base 4:5.24.3-deepin.1.9
 _ZN4KWin9X11Client24updateWindowForhibitMoveEv@Base 4:5.24.3-deepin.1.9
 _ZN4KWin9X11Client26blockingCompositingChangedEPS0_@Base 4:5.24.3-deepin.1.9
 _ZN4KWin9X11Client26clientSideDecoratedChangedEv@Base 4:5.24.3-deepin.1.9
 _ZN4KWin9X11Client26establishCommandWindowGrabEh@Base 4:5.24.3-deepin.1.9
 _ZN4KWin9X11Client26leaveInteractiveMoveResizeEv@Base 4:5.24.3-deepin.1.9
 _ZN4KWin9X11Client26setSessionActivityOverrideEb@Base 4:5.24.3-deepin.1.9
 _ZN4KWin9X11Client28doStartInteractiveMoveResizeEv@Base 4:5.24.3-deepin.1.9
 _ZN4KWin9X11Client28sendSyntheticConfigureNotifyEv@Base 4:5.24.3-deepin.1.9
 _ZN4KWin9X11Client29readApplicationMenuObjectPathERNS_3Xcb14StringPropertyE@Base 4:5.24.3-deepin.1.9
 _ZN4KWin9X11Client30checkApplicationMenuObjectPathEv@Base 4:5.24.3-deepin.1.9
 _ZN4KWin9X11Client30readApplicationMenuServiceNameERNS_3Xcb14StringPropertyE@Base 4:5.24.3-deepin.1.9
 _ZN4KWin9X11Client31checkApplicationMenuServiceNameEv@Base 4:5.24.3-deepin.1.9
 _ZN4KWin9X11Client32maybeCreateX11DecorationRendererEv@Base 4:5.24.3-deepin.1.9
 _ZN4KWin9X11Client33maybeDestroyX11DecorationRendererEv@Base 4:5.24.3-deepin.1.9
 _ZN4KWin9X11Client3mapEv@Base 4:5.24.3-deepin.1.9
 _ZN4KWin9X11Client5groupEv@Base 4:5.24.3-deepin.1.9
 _ZN4KWin9X11Client5unmapEv@Base 4:5.24.3-deepin.1.9
 _ZN4KWin9X11Client6manageEjb@Base 4:5.24.3-deepin.1.9
 _ZN4KWin9X11Client7gotPingEj@Base 4:5.24.3-deepin.1.9
 _ZN4KWin9X11Client8getIconsEv@Base 4:5.24.3-deepin.1.9
 _ZN4KWin9X11Client9fetchNameEv@Base 4:5.24.3-deepin.1.9
 _ZN4KWin9X11Client9findModalEb@Base 4:5.24.3-deepin.1.9
 _ZN4KWin9X11Client9takeFocusEv@Base 4:5.24.3-deepin.1.9
 _ZN4KWin9X11ClientC1Ev@Base 4:5.24.3-deepin.1.9
 _ZN4KWin9X11ClientC2Ev@Base 4:5.24.3-deepin.1.9
 _ZN4KWin9X11ClientD0Ev@Base 4:5.24.3-deepin.1.9
 _ZN4KWin9X11ClientD1Ev@Base 4:5.24.3-deepin.1.9
 _ZN4KWin9X11ClientD2Ev@Base 4:5.24.3-deepin.1.9
 _ZN4KWinlsE6QDebugPKNS_14AbstractOutputE@Base 4:5.24.3-deepin.1.9
 _ZN4KWinlsE6QDebugPKNS_8ToplevelE@Base 4:5.24.3-deepin.1.9
 _ZNK12KConfigGroup9readEntryI5QRectEET_PKcRKS2_@Base 4:5.24.3-deepin.1.9
 _ZNK12KConfigGroup9readEntryI6QColorEET_PKcRKS2_@Base 4:5.24.3-deepin.1.9
 _ZNK12KConfigGroup9readEntryIbEET_PKcRKS1_@Base 4:5.24.3-deepin.1.9
 _ZNK12KConfigGroup9readEntryIdEET_PKcRKS1_@Base 4:5.24.3-deepin.1.9
 _ZNK12KConfigGroup9readEntryIfEE5QListIT_EPKcRKS3_@Base 4:5.24.3-deepin.1.9
 _ZNK12KConfigGroup9readEntryIiEET_PKcRKS1_@Base 4:5.24.3-deepin.1.9
 _ZNK12KConfigGroup9readEntryIjEET_PKcRKS1_@Base 4:5.24.3-deepin.1.9
 _ZNK4KWin10Activities10metaObjectEv@Base 4:5.24.3-deepin.1.9
 _ZNK4KWin10Activities13serviceStatusEv@Base 4:5.24.3-deepin.1.9
 _ZNK4KWin10Compositor10metaObjectEv@Base 4:5.24.3-deepin.1.9
 _ZNK4KWin10Compositor15windowsToRenderEv@Base 4:5.24.3-deepin.1.9
 _ZNK4KWin10Decoration16DecorationBridge10metaObjectEv@Base 4:5.24.3-deepin.1.9
 _ZNK4KWin10Decoration16DecorationBridge18supportInformationEv@Base 4:5.24.3-deepin.1.9
 _ZNK4KWin10Decoration16DecorationBridge9readThemeEv@Base 4:5.24.3-deepin.1.9
 _ZNK4KWin10RenderLoop10metaObjectEv@Base 4:5.24.3-deepin.1.9
 _ZNK4KWin10RenderLoop11refreshRateEv@Base 4:5.24.3-deepin.1.9
 _ZNK4KWin10RenderLoop25lastPresentationTimestampEv@Base 4:5.24.3-deepin.1.9
 _ZNK4KWin10RenderLoop25nextPresentationTimestampEv@Base 4:5.24.3-deepin.1.9
 _ZNK4KWin10RenderLoop9vrrPolicyEv@Base 4:5.24.3-deepin.1.9
 _ZNK4KWin10ShadowItem10buildQuadsEv@Base 4:5.24.3-deepin.1.9
 _ZNK4KWin10ShadowItem10metaObjectEv@Base 4:5.24.3-deepin.1.9
 _ZNK4KWin10ShadowItem6shadowEv@Base 4:5.24.3-deepin.1.9
 _ZNK4KWin10UdevDevice10propertiesEv@Base 4:5.24.3-deepin.1.9
 _ZNK4KWin10UdevDevice6actionEv@Base 4:5.24.3-deepin.1.9
 _ZNK4KWin10UdevDevice6devNumEv@Base 4:5.24.3-deepin.1.9
 _ZNK4KWin10UdevDevice7devNodeEv@Base 4:5.24.3-deepin.1.9
 _ZNK4KWin10UdevDevice9isBootVgaEv@Base 4:5.24.3-deepin.1.9
 _ZNK4KWin10WindowItem10metaObjectEv@Base 4:5.24.3-deepin.1.9
 _ZNK4KWin10WindowItem10shadowItemEv@Base 4:5.24.3-deepin.1.9
 _ZNK4KWin10WindowItem11surfaceItemEv@Base 4:5.24.3-deepin.1.9
 _ZNK4KWin10WindowItem14decorationItemEv@Base 4:5.24.3-deepin.1.9
 _ZNK4KWin10WindowItem6windowEv@Base 4:5.24.3-deepin.1.9
 _ZNK4KWin11Application10metaObjectEv@Base 4:5.24.3-deepin.1.9
 _ZNK4KWin11Application13operationModeEv@Base 4:5.24.3-deepin.1.9
 _ZNK4KWin11Application25processStartupEnvironmentEv@Base 4:5.24.3-deepin.1.9
 _ZNK4KWin11Application30shouldUseWaylandForCompositingEv@Base 4:5.24.3-deepin.1.9
 _ZNK4KWin11ColorDevice10brightnessEv@Base 4:5.24.3-deepin.1.9
 _ZNK4KWin11ColorDevice10metaObjectEv@Base 4:5.24.3-deepin.1.9
 _ZNK4KWin11ColorDevice11temperatureEv@Base 4:5.24.3-deepin.1.9
 _ZNK4KWin11ColorDevice6outputEv@Base 4:5.24.3-deepin.1.9
 _ZNK4KWin11ColorDevice7profileEv@Base 4:5.24.3-deepin.1.9
 _ZNK4KWin11CursorShape4nameEv@Base 4:5.24.3-deepin.1.9
 _ZNK4KWin11InputDevice10metaObjectEv@Base 4:5.24.3-deepin.1.9
 _ZNK4KWin11InputMethod10metaObjectEv@Base 4:5.24.3-deepin.1.9
 _ZNK4KWin11InputMethod11isAvailableEv@Base 4:5.24.3-deepin.1.9
 _ZNK4KWin11InputMethod18shouldShowOnActiveEv@Base 4:5.24.3-deepin.1.9
 _ZNK4KWin11InputMethod8isActiveEv@Base 4:5.24.3-deepin.1.9
 _ZNK4KWin11InputMethod9isVisibleEv@Base 4:5.24.3-deepin.1.9
 _ZNK4KWin11SceneOpenGL10initFailedEv@Base 4:5.24.3-deepin.1.9
 _ZNK4KWin11SceneOpenGL10metaObjectEv@Base 4:5.24.3-deepin.1.9
 _ZNK4KWin11SceneOpenGL14transformationEiRKNS_15ScreenPaintDataE@Base 4:5.24.3-deepin.1.9
 _ZNK4KWin11SceneOpenGL16textureForOutputEPNS_14AbstractOutputE@Base 4:5.24.3-deepin.1.9
 _ZNK4KWin11SceneOpenGL19animationsSupportedEv@Base 4:5.24.3-deepin.1.9
 _ZNK4KWin11SceneOpenGL19supportsNativeFenceEv@Base 4:5.24.3-deepin.1.9
 _ZNK4KWin11SceneOpenGL33openGLPlatformInterfaceExtensionsEv@Base 4:5.24.3-deepin.1.9
 _ZNK4KWin11ScreenEdges10metaObjectEv@Base 4:5.24.3-deepin.1.9
 _ZNK4KWin11ScreenEdges13actionForEdgeEPNS_4EdgeE@Base 4:5.24.3-deepin.1.9
 _ZNK4KWin11ScreenEdges18actionForTouchEdgeEPNS_4EdgeE@Base 4:5.24.3-deepin.1.9
 _ZNK4KWin11ScreenEdges7windowsEv@Base 4:5.24.3-deepin.1.9
 _ZNK4KWin11SurfaceItem10buildQuadsEv@Base 4:5.24.3-deepin.1.9
 _ZNK4KWin11SurfaceItem10metaObjectEv@Base 4:5.24.3-deepin.1.9
 _ZNK4KWin11SurfaceItem14previousPixmapEv@Base 4:5.24.3-deepin.1.9
 _ZNK4KWin11SurfaceItem21surfaceToBufferMatrixEv@Base 4:5.24.3-deepin.1.9
 _ZNK4KWin11SurfaceItem5shapeEv@Base 4:5.24.3-deepin.1.9
 _ZNK4KWin11SurfaceItem6damageEv@Base 4:5.24.3-deepin.1.9
 _ZNK4KWin11SurfaceItem6opaqueEv@Base 4:5.24.3-deepin.1.9
 _ZNK4KWin11SurfaceItem6pixmapEv@Base 4:5.24.3-deepin.1.9
 _ZNK4KWin11SurfaceItem6windowEv@Base 4:5.24.3-deepin.1.9
 _ZNK4KWin11UdevMonitor2fdEv@Base 4:5.24.3-deepin.1.9
 _ZNK4KWin12ColorManager10findDeviceEPNS_14AbstractOutputE@Base 4:5.24.3-deepin.1.9
 _ZNK4KWin12ColorManager10metaObjectEv@Base 4:5.24.3-deepin.1.9
 _ZNK4KWin12ColorManager7devicesEv@Base 4:5.24.3-deepin.1.9
 _ZNK4KWin12DebugConsole10metaObjectEv@Base 4:5.24.3-deepin.1.9
 _ZNK4KWin12EffectLoader10metaObjectEv@Base 4:5.24.3-deepin.1.9
 _ZNK4KWin12EffectLoader17isEffectSupportedERK7QString@Base 4:5.24.3-deepin.1.9
 _ZNK4KWin12EffectLoader18listOfKnownEffectsEv@Base 4:5.24.3-deepin.1.9
 _ZNK4KWin12EffectLoader9hasEffectERK7QString@Base 4:5.24.3-deepin.1.9
 _ZNK4KWin12FTraceLogger10metaObjectEv@Base 4:5.24.3-deepin.1.9
 _ZNK4KWin12FTraceLogger9isEnabledEv@Base 4:5.24.3-deepin.1.9
 _ZNK4KWin12InputBackend10metaObjectEv@Base 4:5.24.3-deepin.1.9
 _ZNK4KWin12InputBackend6configEv@Base 4:5.24.3-deepin.1.9
 _ZNK4KWin12VsyncMonitor10metaObjectEv@Base 4:5.24.3-deepin.1.9
 _ZNK4KWin13DmaBufTexture11framebufferEv@Base 4:5.24.3-deepin.1.9
 _ZNK4KWin13DmaBufTexture7textureEv@Base 4:5.24.3-deepin.1.9
 _ZNK4KWin13KXcursorTheme5shapeERK10QByteArray@Base 4:5.24.3-deepin.1.9
 _ZNK4KWin13KXcursorTheme7isEmptyEv@Base 4:5.24.3-deepin.1.9
 _ZNK4KWin13OpenGLBackend10metaObjectEv@Base 4:5.24.3-deepin.1.9
 _ZNK4KWin13OpenGLBackend15compositingTypeEv@Base 4:5.24.3-deepin.1.9
 _ZNK4KWin13OpenGLBackend16textureForOutputEPNS_14AbstractOutputE@Base 4:5.24.3-deepin.1.9
 _ZNK4KWin13OpenGLBackend20directScanoutAllowedEPNS_14AbstractOutputE@Base 4:5.24.3-deepin.1.9
 _ZNK4KWin13PluginFactory10metaObjectEv@Base 4:5.24.3-deepin.1.9
 _ZNK4KWin13PluginManager10metaObjectEv@Base 4:5.24.3-deepin.1.9
 _ZNK4KWin13PluginManager13loadedPluginsEv@Base 4:5.24.3-deepin.1.9
 _ZNK4KWin13PluginManager16availablePluginsEv@Base 4:5.24.3-deepin.1.9
 _ZNK4KWin13RenderBackend10metaObjectEv@Base 4:5.24.3-deepin.1.9
 _ZNK4KWin13RenderBackend13overlayWindowEv@Base 4:5.24.3-deepin.1.9
 _ZNK4KWin13RenderJournal7averageEv@Base 4:5.24.3-deepin.1.9
 _ZNK4KWin13RenderJournal7maximumEv@Base 4:5.24.3-deepin.1.9
 _ZNK4KWin13RenderJournal7minimumEv@Base 4:5.24.3-deepin.1.9
 _ZNK4KWin13SceneQPainter10initFailedEv@Base 4:5.24.3-deepin.1.9
 _ZNK4KWin13SceneQPainter10metaObjectEv@Base 4:5.24.3-deepin.1.9
 _ZNK4KWin13SceneQPainter12scenePainterEv@Base 4:5.24.3-deepin.1.9
 _ZNK4KWin13SceneQPainter20qpainterRenderBufferEPNS_14AbstractOutputE@Base 4:5.24.3-deepin.1.9
 _ZNK4KWin13SceneQPainter6Window10metaObjectEv@Base 4:5.24.3-deepin.1.9
 _ZNK4KWin13SceneQPainter6Window10renderItemEP8QPainterPNS_4ItemE@Base 4:5.24.3-deepin.1.9
 _ZNK4KWin13SceneQPainter6Window17renderSurfaceItemEP8QPainterPNS_11SurfaceItemE@Base 4:5.24.3-deepin.1.9
 _ZNK4KWin13SceneQPainter6Window20renderDecorationItemEP8QPainterPNS_14DecorationItemE@Base 4:5.24.3-deepin.1.9
 _ZNK4KWin13SurfacePixmap10metaObjectEv@Base 4:5.24.3-deepin.1.9
 _ZNK4KWin13SurfacePixmap11isDiscardedEv@Base 4:5.24.3-deepin.1.9
 _ZNK4KWin13SurfacePixmap12contentsRectEv@Base 4:5.24.3-deepin.1.9
 _ZNK4KWin13SurfacePixmap15hasAlphaChannelEv@Base 4:5.24.3-deepin.1.9
 _ZNK4KWin13SurfacePixmap4sizeEv@Base 4:5.24.3-deepin.1.9
 _ZNK4KWin13SurfacePixmap7textureEv@Base 4:5.24.3-deepin.1.9
 _ZNK4KWin13WaylandServer10findClientEPKN14KWaylandServer16SurfaceInterfaceE@Base 4:5.24.3-deepin.1.9
 _ZNK4KWin13WaylandServer10findOutputEPN14KWaylandServer15OutputInterfaceE@Base 4:5.24.3-deepin.1.9
 _ZNK4KWin13WaylandServer10metaObjectEv@Base 4:5.24.3-deepin.1.9
 _ZNK4KWin13WaylandServer10socketNameEv@Base 4:5.24.3-deepin.1.9
 _ZNK4KWin13WaylandServer14isScreenLockedEv@Base 4:5.24.3-deepin.1.9
 _ZNK4KWin13WaylandServer17findWaylandOutputEPNS_21AbstractWaylandOutputE@Base 4:5.24.3-deepin.1.9
 _ZNK4KWin13WaylandServer18xWaylandConnectionEv@Base 4:5.24.3-deepin.1.9
 _ZNK4KWin13WaylandServer20findXdgSurfaceClientEPN14KWaylandServer16SurfaceInterfaceE@Base 4:5.24.3-deepin.1.9
 _ZNK4KWin13WaylandServer21findXdgToplevelClientEPN14KWaylandServer16SurfaceInterfaceE@Base 4:5.24.3-deepin.1.9
 _ZNK4KWin13WaylandServer21inputMethodConnectionEv@Base 4:5.24.3-deepin.1.9
 _ZNK4KWin13WaylandServer24hasGlobalShortcutSupportEv@Base 4:5.24.3-deepin.1.9
 _ZNK4KWin13WaylandServer26hasScreenLockerIntegrationEv@Base 4:5.24.3-deepin.1.9
 _ZNK4KWin13WaylandServer28isKeyboardShortcutsInhibitedEv@Base 4:5.24.3-deepin.1.9
 _ZNK4KWin13WindowItemX1110metaObjectEv@Base 4:5.24.3-deepin.1.9
 _ZNK4KWin13X11Compositor10metaObjectEv@Base 4:5.24.3-deepin.1.9
 _ZNK4KWin13X11Compositor11syncManagerEv@Base 4:5.24.3-deepin.1.9
 _ZNK4KWin13X11Compositor21checkForOverlayWindowEy@Base 4:5.24.3-deepin.1.9
 _ZNK4KWin13X11Compositor22isOverlayWindowVisibleEv@Base 4:5.24.3-deepin.1.9
 _ZNK4KWin14AbstractClient10activitiesEv@Base 4:5.24.3-deepin.1.9
 _ZNK4KWin14AbstractClient10borderLeftEv@Base 4:5.24.3-deepin.1.9
 _ZNK4KWin14AbstractClient10desktopIdsEv@Base 4:5.24.3-deepin.1.9
 _ZNK4KWin14AbstractClient10metaObjectEv@Base 4:5.24.3-deepin.1.9
 _ZNK4KWin14AbstractClient10strutRectsEv@Base 4:5.24.3-deepin.1.9
 _ZNK4KWin14AbstractClient11borderRightEv@Base 4:5.24.3-deepin.1.9
 _ZNK4KWin14AbstractClient11colorSchemeEv@Base 4:5.24.3-deepin.1.9
 _ZNK4KWin14AbstractClient11isPlaceableEv@Base 4:5.24.3-deepin.1.9
 _ZNK4KWin14AbstractClient11isShadeableEv@Base 4:5.24.3-deepin.1.9
 _ZNK4KWin14AbstractClient11isTransientEv@Base 4:5.24.3-deepin.1.9
 _ZNK4KWin14AbstractClient11mainClientsEv@Base 4:5.24.3-deepin.1.9
 _ZNK4KWin14AbstractClient12borderBottomEv@Base 4:5.24.3-deepin.1.9
 _ZNK4KWin14AbstractClient12frameMarginsEv@Base 4:5.24.3-deepin.1.9
 _ZNK4KWin14AbstractClient12hasTransientEPKS0_b@Base 4:5.24.3-deepin.1.9
 _ZNK4KWin14AbstractClient12iconGeometryEv@Base 4:5.24.3-deepin.1.9
 _ZNK4KWin14AbstractClient12implicitSizeEv@Base 4:5.24.3-deepin.1.9
 _ZNK4KWin14AbstractClient12isFullScreenEv@Base 4:5.24.3-deepin.1.9
 _ZNK4KWin14AbstractClient12layerForDockEv@Base 4:5.24.3-deepin.1.9
 _ZNK4KWin14AbstractClient12maximizeModeEv@Base 4:5.24.3-deepin.1.9
 _ZNK4KWin14AbstractClient12mouseGravityEv@Base 4:5.24.3-deepin.1.9
 _ZNK4KWin14AbstractClient12transientForEv@Base 4:5.24.3-deepin.1.9
 _ZNK4KWin14AbstractClient12unresponsiveEv@Base 4:5.24.3-deepin.1.9
 _ZNK4KWin14AbstractClient13inputGeometryEv@Base 4:5.24.3-deepin.1.9
 _ZNK4KWin14AbstractClient13isMaximizableEv@Base 4:5.24.3-deepin.1.9
 _ZNK4KWin14AbstractClient13isMinimizableEb@Base 4:5.24.3-deepin.1.9
 _ZNK4KWin14AbstractClient13wantsTabFocusEv@Base 4:5.24.3-deepin.1.9
 _ZNK4KWin14AbstractClient13x11DesktopIdsEv@Base 4:5.24.3-deepin.1.9
 _ZNK4KWin14AbstractClient14allMainClientsEv@Base 4:5.24.3-deepin.1.9
 _ZNK4KWin14AbstractClient14belongsToLayerEv@Base 4:5.24.3-deepin.1.9
 _ZNK4KWin14AbstractClient14dockWantsInputEv@Base 4:5.24.3-deepin.1.9
 _ZNK4KWin14AbstractClient14groupTransientEv@Base 4:5.24.3-deepin.1.9
 _ZNK4KWin14AbstractClient15decoratedClientEv@Base 4:5.24.3-deepin.1.9
 _ZNK4KWin14AbstractClient15geometryRestoreEv@Base 4:5.24.3-deepin.1.9
 _ZNK4KWin14AbstractClient15getMouseCommandEN2Qt11MouseButtonEPb@Base 4:5.24.3-deepin.1.9
 _ZNK4KWin14AbstractClient15getWheelCommandEN2Qt11OrientationEPb@Base 4:5.24.3-deepin.1.9
 _ZNK4KWin14AbstractClient15isSpecialWindowEv@Base 4:5.24.3-deepin.1.9
 _ZNK4KWin14AbstractClient16belongsToDesktopEv@Base 4:5.24.3-deepin.1.9
 _ZNK4KWin14AbstractClient16isFullScreenableEv@Base 4:5.24.3-deepin.1.9
 _ZNK4KWin14AbstractClient16resizeIncrementsEv@Base 4:5.24.3-deepin.1.9
 _ZNK4KWin14AbstractClient16titlebarPositionEv@Base 4:5.24.3-deepin.1.9
 _ZNK4KWin14AbstractClient17decorationPaletteEv@Base 4:5.24.3-deepin.1.9
 _ZNK4KWin14AbstractClient17quickTileGeometryE6QFlagsINS_13QuickTileFlagEERK6QPoint@Base 4:5.24.3-deepin.1.9
 _ZNK4KWin14AbstractClient18constrainFrameSizeERK5QSizeNS0_8SizeModeE@Base 4:5.24.3-deepin.1.9
 _ZNK4KWin14AbstractClient18decorationHasAlphaEv@Base 4:5.24.3-deepin.1.9
 _ZNK4KWin14AbstractClient18hasApplicationMenuEv@Base 4:5.24.3-deepin.1.9
 _ZNK4KWin14AbstractClient18isActiveFullScreenEv@Base 4:5.24.3-deepin.1.9
 _ZNK4KWin14AbstractClient18moveResizeGeometryEv@Base 4:5.24.3-deepin.1.9
 _ZNK4KWin14AbstractClient18transientPlacementERK5QRect@Base 4:5.24.3-deepin.1.9
 _ZNK4KWin14AbstractClient18userCanSetNoBorderEv@Base 4:5.24.3-deepin.1.9
 _ZNK4KWin14AbstractClient18windowForhibitMoveEv@Base 4:5.24.3-deepin.1.9
 _ZNK4KWin14AbstractClient19clientPosToFramePosERK6QPoint@Base 4:5.24.3-deepin.1.9
 _ZNK4KWin14AbstractClient19constrainClientSizeERK5QSizeNS0_8SizeModeE@Base 4:5.24.3-deepin.1.9
 _ZNK4KWin14AbstractClient19framePosToClientPosERK6QPoint@Base 4:5.24.3-deepin.1.9
 _ZNK4KWin14AbstractClient19iconFromDesktopFileEv@Base 4:5.24.3-deepin.1.9
 _ZNK4KWin14AbstractClient19providesContextHelpEv@Base 4:5.24.3-deepin.1.9
 _ZNK4KWin14AbstractClient19supportsWindowRulesEv@Base 4:5.24.3-deepin.1.9
 _ZNK4KWin14AbstractClient20isMostRecentlyRaisedEv@Base 4:5.24.3-deepin.1.9
 _ZNK4KWin14AbstractClient20preferredColorSchemeEv@Base 4:5.24.3-deepin.1.9
 _ZNK4KWin14AbstractClient20userCanSetFullScreenEv@Base 4:5.24.3-deepin.1.9
 _ZNK4KWin14AbstractClient21clientRectToFrameRectERK5QRect@Base 4:5.24.3-deepin.1.9
 _ZNK4KWin14AbstractClient21clientSizeToFrameSizeERK5QSize@Base 4:5.24.3-deepin.1.9
 _ZNK4KWin14AbstractClient21frameRectToClientRectERK5QRect@Base 4:5.24.3-deepin.1.9
 _ZNK4KWin14AbstractClient21frameSizeToClientSizeERK5QSize@Base 4:5.24.3-deepin.1.9
 _ZNK4KWin14AbstractClient21isRequestedFullScreenEv@Base 4:5.24.3-deepin.1.9
 _ZNK4KWin14AbstractClient21layoutDecorationRectsER5QRectS2_S2_S2_@Base 4:5.24.3-deepin.1.9
 _ZNK4KWin14AbstractClient21requestedMaximizeModeEv@Base 4:5.24.3-deepin.1.9
 _ZNK4KWin14AbstractClient21shortcutCaptionSuffixEv@Base 4:5.24.3-deepin.1.9
 _ZNK4KWin14AbstractClient22iconFromGioDesktopFileEv@Base 4:5.24.3-deepin.1.9
 _ZNK4KWin14AbstractClient23keyboardGeometryRestoreEv@Base 4:5.24.3-deepin.1.9
 _ZNK4KWin14AbstractClient23virtualKeyboardGeometryEv@Base 4:5.24.3-deepin.1.9
 _ZNK4KWin14AbstractClient23wantsShadowToBeRenderedEv@Base 4:5.24.3-deepin.1.9
 _ZNK4KWin14AbstractClient24quickTileGeometryRestoreEv@Base 4:5.24.3-deepin.1.9
 _ZNK4KWin14AbstractClient25findClientWithSameCaptionEv@Base 4:5.24.3-deepin.1.9
 _ZNK4KWin14AbstractClient25fullscreenGeometryRestoreEv@Base 4:5.24.3-deepin.1.9
 _ZNK4KWin14AbstractClient25hasTransientPlacementHintEv@Base 4:5.24.3-deepin.1.9
 _ZNK4KWin14AbstractClient26titlebarPositionUnderMouseEv@Base 4:5.24.3-deepin.1.9
 _ZNK4KWin14AbstractClient37isWaitingForInteractiveMoveResizeSyncEv@Base 4:5.24.3-deepin.1.9
 _ZNK4KWin14AbstractClient5groupEv@Base 4:5.24.3-deepin.1.9
 _ZNK4KWin14AbstractClient5layerEv@Base 4:5.24.3-deepin.1.9
 _ZNK4KWin14AbstractClient7captionEv@Base 4:5.24.3-deepin.1.9
 _ZNK4KWin14AbstractClient7desktopEv@Base 4:5.24.3-deepin.1.9
 _ZNK4KWin14AbstractClient7hitTestERK6QPoint@Base 4:5.24.3-deepin.1.9
 _ZNK4KWin14AbstractClient7isModalEv@Base 4:5.24.3-deepin.1.9
 _ZNK4KWin14AbstractClient7maxSizeEv@Base 4:5.24.3-deepin.1.9
 _ZNK4KWin14AbstractClient7minSizeEv@Base 4:5.24.3-deepin.1.9
 _ZNK4KWin14AbstractClient7paletteEv@Base 4:5.24.3-deepin.1.9
 _ZNK4KWin14AbstractClient8hasStrutEv@Base 4:5.24.3-deepin.1.9
 _ZNK4KWin14AbstractClient8isZombieEv@Base 4:5.24.3-deepin.1.9
 _ZNK4KWin14AbstractClient8noBorderEv@Base 4:5.24.3-deepin.1.9
 _ZNK4KWin14AbstractClient8userTimeEv@Base 4:5.24.3-deepin.1.9
 _ZNK4KWin14AbstractClient9borderTopEv@Base 4:5.24.3-deepin.1.9
 _ZNK4KWin14AbstractClient9shadeModeEv@Base 4:5.24.3-deepin.1.9
 _ZNK4KWin14AbstractClient9strutRectENS_9StrutAreaE@Base 4:5.24.3-deepin.1.9
 _ZNK4KWin14AbstractOutput10isInternalEv@Base 4:5.24.3-deepin.1.9
 _ZNK4KWin14AbstractOutput10metaObjectEv@Base 4:5.24.3-deepin.1.9
 _ZNK4KWin14AbstractOutput10renderLoopEv@Base 4:5.24.3-deepin.1.9
 _ZNK4KWin14AbstractOutput12manufacturerEv@Base 4:5.24.3-deepin.1.9
 _ZNK4KWin14AbstractOutput12physicalSizeEv@Base 4:5.24.3-deepin.1.9
 _ZNK4KWin14AbstractOutput12serialNumberEv@Base 4:5.24.3-deepin.1.9
 _ZNK4KWin14AbstractOutput13gammaRampSizeEv@Base 4:5.24.3-deepin.1.9
 _ZNK4KWin14AbstractOutput18usesSoftwareCursorEv@Base 4:5.24.3-deepin.1.9
 _ZNK4KWin14AbstractOutput22directScanoutInhibitedEv@Base 4:5.24.3-deepin.1.9
 _ZNK4KWin14AbstractOutput4uuidEv@Base 4:5.24.3-deepin.1.9
 _ZNK4KWin14AbstractOutput5modelEv@Base 4:5.24.3-deepin.1.9
 _ZNK4KWin14AbstractOutput5scaleEv@Base 4:5.24.3-deepin.1.9
 _ZNK4KWin14AbstractOutput9isEnabledEv@Base 4:5.24.3-deepin.1.9
 _ZNK4KWin14AbstractScript10metaObjectEv@Base 4:5.24.3-deepin.1.9
 _ZNK4KWin14AbstractScript6configEv@Base 4:5.24.3-deepin.1.9
 _ZNK4KWin14DecorationItem10buildQuadsEv@Base 4:5.24.3-deepin.1.9
 _ZNK4KWin14DecorationItem10metaObjectEv@Base 4:5.24.3-deepin.1.9
 _ZNK4KWin14DecorationItem8rendererEv@Base 4:5.24.3-deepin.1.9
 _ZNK4KWin14InternalClient10isInternalEv@Base 4:5.24.3-deepin.1.9
 _ZNK4KWin14InternalClient10metaObjectEv@Base 4:5.24.3-deepin.1.9
 _ZNK4KWin14InternalClient10wantsInputEv@Base 4:5.24.3-deepin.1.9
 _ZNK4KWin14InternalClient10windowRoleEv@Base 4:5.24.3-deepin.1.9
 _ZNK4KWin14InternalClient10windowTypeEbi@Base 4:5.24.3-deepin.1.9
 _ZNK4KWin14InternalClient11bufferScaleEv@Base 4:5.24.3-deepin.1.9
 _ZNK4KWin14InternalClient11isCloseableEv@Base 4:5.24.3-deepin.1.9
 _ZNK4KWin14InternalClient11isPlaceableEv@Base 4:5.24.3-deepin.1.9
 _ZNK4KWin14InternalClient11isResizableEv@Base 4:5.24.3-deepin.1.9
 _ZNK4KWin14InternalClient12acceptsFocusEv@Base 4:5.24.3-deepin.1.9
 _ZNK4KWin14InternalClient12hasPopupGrabEv@Base 4:5.24.3-deepin.1.9
 _ZNK4KWin14InternalClient12isLockScreenEv@Base 4:5.24.3-deepin.1.9
 _ZNK4KWin14InternalClient13captionNormalEv@Base 4:5.24.3-deepin.1.9
 _ZNK4KWin14InternalClient13captionSuffixEv@Base 4:5.24.3-deepin.1.9
 _ZNK4KWin14InternalClient13isPopupWindowEv@Base 4:5.24.3-deepin.1.9
 _ZNK4KWin14InternalClient14internalWindowEv@Base 4:5.24.3-deepin.1.9
 _ZNK4KWin14InternalClient16isHiddenInternalEv@Base 4:5.24.3-deepin.1.9
 _ZNK4KWin14InternalClient18userCanSetNoBorderEv@Base 4:5.24.3-deepin.1.9
 _ZNK4KWin14InternalClient22isMovableAcrossScreensEv@Base 4:5.24.3-deepin.1.9
 _ZNK4KWin14InternalClient24belongsToSameApplicationEPKNS_14AbstractClientE6QFlagsINS1_20SameApplicationCheckEE@Base 4:5.24.3-deepin.1.9
 _ZNK4KWin14InternalClient7hitTestERK6QPoint@Base 4:5.24.3-deepin.1.9
 _ZNK4KWin14InternalClient7isShownEv@Base 4:5.24.3-deepin.1.9
 _ZNK4KWin14InternalClient7maxSizeEv@Base 4:5.24.3-deepin.1.9
 _ZNK4KWin14InternalClient7minSizeEv@Base 4:5.24.3-deepin.1.9
 _ZNK4KWin14InternalClient8isClientEv@Base 4:5.24.3-deepin.1.9
 _ZNK4KWin14InternalClient8noBorderEv@Base 4:5.24.3-deepin.1.9
 _ZNK4KWin14InternalClient9isMovableEv@Base 4:5.24.3-deepin.1.9
 _ZNK4KWin14InternalClient9isOutlineEv@Base 4:5.24.3-deepin.1.9
 _ZNK4KWin14KXcursorSprite4dataEv@Base 4:5.24.3-deepin.1.9
 _ZNK4KWin14KXcursorSprite5delayEv@Base 4:5.24.3-deepin.1.9
 _ZNK4KWin14KXcursorSprite7hotspotEv@Base 4:5.24.3-deepin.1.9
 _ZNK4KWin14ScriptedEffect10metaObjectEv@Base 4:5.24.3-deepin.1.9
 _ZNK4KWin14ScriptedEffect12displayWidthEv@Base 4:5.24.3-deepin.1.9
 _ZNK4KWin14ScriptedEffect13animationTimeEi@Base 4:5.24.3-deepin.1.9
 _ZNK4KWin14ScriptedEffect13displayHeightEv@Base 4:5.24.3-deepin.1.9
 _ZNK4KWin14ScriptedEffect24isActiveFullScreenEffectEv@Base 4:5.24.3-deepin.1.9
 _ZNK4KWin14ScriptedEffect6engineEv@Base 4:5.24.3-deepin.1.9
 _ZNK4KWin14ScriptedEffect8pluginIdEv@Base 4:5.24.3-deepin.1.9
 _ZNK4KWin14SurfaceItemX1110metaObjectEv@Base 4:5.24.3-deepin.1.9
 _ZNK4KWin14SurfaceItemX115shapeEv@Base 4:5.24.3-deepin.1.9
 _ZNK4KWin14SurfaceItemX116opaqueEv@Base 4:5.24.3-deepin.1.9
 _ZNK4KWin14VirtualDesktop10metaObjectEv@Base 4:5.24.3-deepin.1.9
 _ZNK4KWin14X11EventFilter14isGenericEventEv@Base 4:5.24.3-deepin.1.9
 _ZNK4KWin15EffectFrameImpl10metaObjectEv@Base 4:5.24.3-deepin.1.9
 _ZNK4KWin15EffectFrameImpl11finalRenderE7QRegiondd@Base 4:5.24.3-deepin.1.9
 _ZNK4KWin15EffectFrameImpl4fontEv@Base 4:5.24.3-deepin.1.9
 _ZNK4KWin15EffectFrameImpl4iconEv@Base 4:5.24.3-deepin.1.9
 _ZNK4KWin15EffectFrameImpl4textEv@Base 4:5.24.3-deepin.1.9
 _ZNK4KWin15EffectFrameImpl8geometryEv@Base 4:5.24.3-deepin.1.9
 _ZNK4KWin15EffectFrameImpl8iconSizeEv@Base 4:5.24.3-deepin.1.9
 _ZNK4KWin15EffectFrameImpl9alignmentEv@Base 4:5.24.3-deepin.1.9
 _ZNK4KWin15LibinputBackend10metaObjectEv@Base 4:5.24.3-deepin.1.9
 _ZNK4KWin15QPainterBackend10metaObjectEv@Base 4:5.24.3-deepin.1.9
 _ZNK4KWin15QPainterBackend15compositingTypeEv@Base 4:5.24.3-deepin.1.9
 _ZNK4KWin15UserActionsMenu10metaObjectEv@Base 4:5.24.3-deepin.1.9
 _ZNK4KWin15UserActionsMenu12isMenuClientEPKNS_14AbstractClientE@Base 4:5.24.3-deepin.1.9
 _ZNK4KWin15UserActionsMenu7isShownEv@Base 4:5.24.3-deepin.1.9
 _ZNK4KWin15UserActionsMenu9hasClientEv@Base 4:5.24.3-deepin.1.9
 _ZNK4KWin16InputRedirection10hasPointerEv@Base 4:5.24.3-deepin.1.9
 _ZNK4KWin16InputRedirection10metaObjectEv@Base 4:5.24.3-deepin.1.9
 _ZNK4KWin16InputRedirection13globalPointerEv@Base 4:5.24.3-deepin.1.9
 _ZNK4KWin16InputRedirection14qtButtonStatesEv@Base 4:5.24.3-deepin.1.9
 _ZNK4KWin16InputRedirection16lastInputHandlerEv@Base 4:5.24.3-deepin.1.9
 _ZNK4KWin16InputRedirection17isSelectingWindowEv@Base 4:5.24.3-deepin.1.9
 _ZNK4KWin16InputRedirection17keyboardModifiersEv@Base 4:5.24.3-deepin.1.9
 _ZNK4KWin16InputRedirection22supportsPointerWarpingEv@Base 4:5.24.3-deepin.1.9
 _ZNK4KWin16InputRedirection35modifiersRelevantForGlobalShortcutsEv@Base 4:5.24.3-deepin.1.9
 _ZNK4KWin16InputRedirection8hasTouchEv@Base 4:5.24.3-deepin.1.9
 _ZNK4KWin16SurfacePixmapX1110metaObjectEv@Base 4:5.24.3-deepin.1.9
 _ZNK4KWin16SurfacePixmapX116pixmapEv@Base 4:5.24.3-deepin.1.9
 _ZNK4KWin16SurfacePixmapX116visualEv@Base 4:5.24.3-deepin.1.9
 _ZNK4KWin16SurfacePixmapX117isValidEv@Base 4:5.24.3-deepin.1.9
 _ZNK4KWin17DebugConsoleModel10metaObjectEv@Base 4:5.24.3-deepin.1.9
 _ZNK4KWin17DebugConsoleModel11columnCountERK11QModelIndex@Base 4:5.24.3-deepin.1.9
 _ZNK4KWin17DebugConsoleModel12propertyDataEP7QObjectRK11QModelIndexi@Base 4:5.24.3-deepin.1.9
 _ZNK4KWin17DebugConsoleModel13waylandClientERK11QModelIndex@Base 4:5.24.3-deepin.1.9
 _ZNK4KWin17DebugConsoleModel14internalClientERK11QModelIndex@Base 4:5.24.3-deepin.1.9
 _ZNK4KWin17DebugConsoleModel16topLevelRowCountEv@Base 4:5.24.3-deepin.1.9
 _ZNK4KWin17DebugConsoleModel4dataERK11QModelIndexi@Base 4:5.24.3-deepin.1.9
 _ZNK4KWin17DebugConsoleModel5indexEiiRK11QModelIndex@Base 4:5.24.3-deepin.1.9
 _ZNK4KWin17DebugConsoleModel6parentERK11QModelIndex@Base 4:5.24.3-deepin.1.9
 _ZNK4KWin17DebugConsoleModel8rowCountERK11QModelIndex@Base 4:5.24.3-deepin.1.9
 _ZNK4KWin17DebugConsoleModel9unmanagedERK11QModelIndex@Base 4:5.24.3-deepin.1.9
 _ZNK4KWin17DebugConsoleModel9x11ClientERK11QModelIndex@Base 4:5.24.3-deepin.1.9
 _ZNK4KWin17GestureRecognizer10metaObjectEv@Base 4:5.24.3-deepin.1.9
 _ZNK4KWin17WaylandCompositor10metaObjectEv@Base 4:5.24.3-deepin.1.9
 _ZNK4KWin17WindowItemWayland10metaObjectEv@Base 4:5.24.3-deepin.1.9
 _ZNK4KWin17XwaylandInterface10metaObjectEv@Base 4:5.24.3-deepin.1.9
 _ZNK4KWin18AbstractEglBackend10isOpenGLESEv@Base 4:5.24.3-deepin.1.9
 _ZNK4KWin18AbstractEglBackend10metaObjectEv@Base 4:5.24.3-deepin.1.9
 _ZNK4KWin18AbstractEglBackend11prefer10bpcEv@Base 4:5.24.3-deepin.1.9
 _ZNK4KWin18AbstractEglBackend16textureForOutputEPNS_14AbstractOutputE@Base 4:5.24.3-deepin.1.9
 _ZNK4KWin18AbstractEglBackend18hasClientExtensionERK10QByteArray@Base 4:5.24.3-deepin.1.9
 _ZNK4KWin18AbstractEglBackend6dmabufEv@Base 4:5.24.3-deepin.1.9
 _ZNK4KWin18AbstractEglBackend8deviceIdEv@Base 4:5.24.3-deepin.1.9
 _ZNK4KWin18DecorationRenderer10metaObjectEv@Base 4:5.24.3-deepin.1.9
 _ZNK4KWin18DecorationRenderer16devicePixelRatioEv@Base 4:5.24.3-deepin.1.9
 _ZNK4KWin18DecorationRenderer25effectiveDevicePixelRatioEv@Base 4:5.24.3-deepin.1.9
 _ZNK4KWin18DecorationRenderer6clientEv@Base 4:5.24.3-deepin.1.9
 _ZNK4KWin18DecorationRenderer6damageEv@Base 4:5.24.3-deepin.1.9
 _ZNK4KWin18EffectsHandlerImpl10clientAreaENS_16clientAreaOptionEPKNS_12EffectScreenEi@Base 4:5.24.3-deepin.1.9
 _ZNK4KWin18EffectsHandlerImpl10clientAreaENS_16clientAreaOptionEPKNS_12EffectWindowE@Base 4:5.24.3-deepin.1.9
 _ZNK4KWin18EffectsHandlerImpl10clientAreaENS_16clientAreaOptionERK6QPointi@Base 4:5.24.3-deepin.1.9
 _ZNK4KWin18EffectsHandlerImpl10findEffectERK7QString@Base 4:5.24.3-deepin.1.9
 _ZNK4KWin18EffectsHandlerImpl10findScreenERK7QString@Base 4:5.24.3-deepin.1.9
 _ZNK4KWin18EffectsHandlerImpl10findScreenEi@Base 4:5.24.3-deepin.1.9
 _ZNK4KWin18EffectsHandlerImpl10findWindowEP7QWindow@Base 4:5.24.3-deepin.1.9
 _ZNK4KWin18EffectsHandlerImpl10findWindowEPN14KWaylandServer16SurfaceInterfaceE@Base 4:5.24.3-deepin.1.9
 _ZNK4KWin18EffectsHandlerImpl10findWindowERK5QUuid@Base 4:5.24.3-deepin.1.9
 _ZNK4KWin18EffectsHandlerImpl10findWindowEy@Base 4:5.24.3-deepin.1.9
 _ZNK4KWin18EffectsHandlerImpl10metaObjectEv@Base 4:5.24.3-deepin.1.9
 _ZNK4KWin18EffectsHandlerImpl11cursorImageEv@Base 4:5.24.3-deepin.1.9
 _ZNK4KWin18EffectsHandlerImpl11desktopNameEi@Base 4:5.24.3-deepin.1.9
 _ZNK4KWin18EffectsHandlerImpl11effectFrameENS_16EffectFrameStyleEbRK6QPoint6QFlagsIN2Qt13AlignmentFlagEE@Base 4:5.24.3-deepin.1.9
 _ZNK4KWin18EffectsHandlerImpl11inputConfigEv@Base 4:5.24.3-deepin.1.9
 _ZNK4KWin18EffectsHandlerImpl12activeScreenEv@Base 4:5.24.3-deepin.1.9
 _ZNK4KWin18EffectsHandlerImpl12activeWindowEv@Base 4:5.24.3-deepin.1.9
 _ZNK4KWin18EffectsHandlerImpl12desktopAboveEib@Base 4:5.24.3-deepin.1.9
 _ZNK4KWin18EffectsHandlerImpl12desktopBelowEib@Base 4:5.24.3-deepin.1.9
 _ZNK4KWin18EffectsHandlerImpl12sessionStateEv@Base 4:5.24.3-deepin.1.9
 _ZNK4KWin18EffectsHandlerImpl13activeEffectsEv@Base 4:5.24.3-deepin.1.9
 _ZNK4KWin18EffectsHandlerImpl13desktopCoordsEi@Base 4:5.24.3-deepin.1.9
 _ZNK4KWin18EffectsHandlerImpl13desktopToLeftEib@Base 4:5.24.3-deepin.1.9
 _ZNK4KWin18EffectsHandlerImpl13listOfEffectsEv@Base 4:5.24.3-deepin.1.9
 _ZNK4KWin18EffectsHandlerImpl13loadedEffectsEv@Base 4:5.24.3-deepin.1.9
 _ZNK4KWin18EffectsHandlerImpl13stackingOrderEv@Base 4:5.24.3-deepin.1.9
 _ZNK4KWin18EffectsHandlerImpl13x11RootWindowEv@Base 4:5.24.3-deepin.1.9
 _ZNK4KWin18EffectsHandlerImpl13xcbConnectionEv@Base 4:5.24.3-deepin.1.9
 _ZNK4KWin18EffectsHandlerImpl14currentDesktopEv@Base 4:5.24.3-deepin.1.9
 _ZNK4KWin18EffectsHandlerImpl14desktopToRightEib@Base 4:5.24.3-deepin.1.9
 _ZNK4KWin18EffectsHandlerImpl14isCursorHiddenEv@Base 4:5.24.3-deepin.1.9
 _ZNK4KWin18EffectsHandlerImpl14isEffectLoadedERK7QString@Base 4:5.24.3-deepin.1.9
 _ZNK4KWin18EffectsHandlerImpl14isScreenLockedEv@Base 4:5.24.3-deepin.1.9
 _ZNK4KWin18EffectsHandlerImpl14waylandDisplayEv@Base 4:5.24.3-deepin.1.9
 _ZNK4KWin18EffectsHandlerImpl14workspaceWidthEv@Base 4:5.24.3-deepin.1.9
 _ZNK4KWin18EffectsHandlerImpl15currentActivityEv@Base 4:5.24.3-deepin.1.9
 _ZNK4KWin18EffectsHandlerImpl15desktopAtCoordsE6QPoint@Base 4:5.24.3-deepin.1.9
 _ZNK4KWin18EffectsHandlerImpl15desktopGridSizeEv@Base 4:5.24.3-deepin.1.9
 _ZNK4KWin18EffectsHandlerImpl15hasKeyboardGrabEv@Base 4:5.24.3-deepin.1.9
 _ZNK4KWin18EffectsHandlerImpl15workspaceHeightEv@Base 4:5.24.3-deepin.1.9
 _ZNK4KWin18EffectsHandlerImpl16desktopGridWidthEv@Base 4:5.24.3-deepin.1.9
 _ZNK4KWin18EffectsHandlerImpl16numberOfDesktopsEv@Base 4:5.24.3-deepin.1.9
 _ZNK4KWin18EffectsHandlerImpl16readRootPropertyElli@Base 4:5.24.3-deepin.1.9
 _ZNK4KWin18EffectsHandlerImpl17desktopGridCoordsEi@Base 4:5.24.3-deepin.1.9
 _ZNK4KWin18EffectsHandlerImpl17desktopGridHeightEv@Base 4:5.24.3-deepin.1.9
 _ZNK4KWin18EffectsHandlerImpl17virtualScreenSizeEv@Base 4:5.24.3-deepin.1.9
 _ZNK4KWin18EffectsHandlerImpl18supportInformationERK7QString@Base 4:5.24.3-deepin.1.9
 _ZNK4KWin18EffectsHandlerImpl19animationTimeFactorEv@Base 4:5.24.3-deepin.1.9
 _ZNK4KWin18EffectsHandlerImpl19animationsSupportedEv@Base 4:5.24.3-deepin.1.9
 _ZNK4KWin18EffectsHandlerImpl19blocksDirectScanoutEv@Base 4:5.24.3-deepin.1.9
 _ZNK4KWin18EffectsHandlerImpl19currentTabBoxWindowEv@Base 4:5.24.3-deepin.1.9
 _ZNK4KWin18EffectsHandlerImpl19isMouseInterceptionEv@Base 4:5.24.3-deepin.1.9
 _ZNK4KWin18EffectsHandlerImpl20currentTabBoxDesktopEv@Base 4:5.24.3-deepin.1.9
 _ZNK4KWin18EffectsHandlerImpl20decorationsHaveAlphaEv@Base 4:5.24.3-deepin.1.9
 _ZNK4KWin18EffectsHandlerImpl20hasDecorationShadowsEv@Base 4:5.24.3-deepin.1.9
 _ZNK4KWin18EffectsHandlerImpl21virtualScreenGeometryEv@Base 4:5.24.3-deepin.1.9
 _ZNK4KWin18EffectsHandlerImpl22activeFullScreenEffectEv@Base 4:5.24.3-deepin.1.9
 _ZNK4KWin18EffectsHandlerImpl22optionRollOverDesktopsEv@Base 4:5.24.3-deepin.1.9
 _ZNK4KWin18EffectsHandlerImpl23currentTabBoxWindowListEv@Base 4:5.24.3-deepin.1.9
 _ZNK4KWin18EffectsHandlerImpl23desktopChangedDirectionEv@Base 4:5.24.3-deepin.1.9
 _ZNK4KWin18EffectsHandlerImpl24currentTabBoxDesktopListEv@Base 4:5.24.3-deepin.1.9
 _ZNK4KWin18EffectsHandlerImpl24renderOffscreenQuickViewEPNS_18OffscreenQuickViewE@Base 4:5.24.3-deepin.1.9
 _ZNK4KWin18EffectsHandlerImpl25hasActiveFullScreenEffectEv@Base 4:5.24.3-deepin.1.9
 _ZNK4KWin18EffectsHandlerImpl28decorationSupportsBlurBehindEv@Base 4:5.24.3-deepin.1.9
 _ZNK4KWin18EffectsHandlerImpl5debugERK7QStringS3_@Base 4:5.24.3-deepin.1.9
 _ZNK4KWin18EffectsHandlerImpl6configEv@Base 4:5.24.3-deepin.1.9
 _ZNK4KWin18EffectsHandlerImpl7screensEv@Base 4:5.24.3-deepin.1.9
 _ZNK4KWin18EffectsHandlerImpl8screenAtERK6QPoint@Base 4:5.24.3-deepin.1.9
 _ZNK4KWin18EffectsHandlerImpl9cursorPosEv@Base 4:5.24.3-deepin.1.9
 _ZNK4KWin18InputDeviceHandler10decorationEv@Base 4:5.24.3-deepin.1.9
 _ZNK4KWin18InputDeviceHandler10metaObjectEv@Base 4:5.24.3-deepin.1.9
 _ZNK4KWin18InputDeviceHandler5focusEv@Base 4:5.24.3-deepin.1.9
 _ZNK4KWin18InputDeviceHandler5hoverEv@Base 4:5.24.3-deepin.1.9
 _ZNK4KWin18SurfaceItemWayland10metaObjectEv@Base 4:5.24.3-deepin.1.9
 _ZNK4KWin18SurfaceItemWayland5shapeEv@Base 4:5.24.3-deepin.1.9
 _ZNK4KWin18SurfaceItemWayland6opaqueEv@Base 4:5.24.3-deepin.1.9
 _ZNK4KWin18SurfaceItemWayland7surfaceEv@Base 4:5.24.3-deepin.1.9
 _ZNK4KWin18WindowItemInternal10metaObjectEv@Base 4:5.24.3-deepin.1.9
 _ZNK4KWin19ScreenLockerWatcher10metaObjectEv@Base 4:5.24.3-deepin.1.9
 _ZNK4KWin19SurfaceItemInternal10metaObjectEv@Base 4:5.24.3-deepin.1.9
 _ZNK4KWin19SurfaceItemInternal5shapeEv@Base 4:5.24.3-deepin.1.9
 _ZNK4KWin19SurfaceItemXwayland10metaObjectEv@Base 4:5.24.3-deepin.1.9
 _ZNK4KWin19SurfaceItemXwayland5shapeEv@Base 4:5.24.3-deepin.1.9
 _ZNK4KWin19VirtualKeyboardDBus10metaObjectEv@Base 4:5.24.3-deepin.1.9
 _ZNK4KWin19VirtualKeyboardDBus11isAvailableEv@Base 4:5.24.3-deepin.1.9
 _ZNK4KWin19VirtualKeyboardDBus16willShowOnActiveEv@Base 4:5.24.3-deepin.1.9
 _ZNK4KWin19VirtualKeyboardDBus8isActiveEv@Base 4:5.24.3-deepin.1.9
 _ZNK4KWin19VirtualKeyboardDBus9isEnabledEv@Base 4:5.24.3-deepin.1.9
 _ZNK4KWin19VirtualKeyboardDBus9isVisibleEv@Base 4:5.24.3-deepin.1.9
 _ZNK4KWin19WaylandOutputConfig14constChangeSetEPNS_21AbstractWaylandOutputE@Base 4:5.24.3-deepin.1.9
 _ZNK4KWin20AbstractEffectLoader10metaObjectEv@Base 4:5.24.3-deepin.1.9
 _ZNK4KWin20AbstractEffectLoader10readConfigERK7QStringb@Base 4:5.24.3-deepin.1.9
 _ZNK4KWin20OpenGLSurfaceTexture7backendEv@Base 4:5.24.3-deepin.1.9
 _ZNK4KWin20OpenGLSurfaceTexture7isValidEv@Base 4:5.24.3-deepin.1.9
 _ZNK4KWin20OpenGLSurfaceTexture7textureEv@Base 4:5.24.3-deepin.1.9
 _ZNK4KWin20ScriptedEffectLoader10findEffectERK7QString@Base 4:5.24.3-deepin.1.9
 _ZNK4KWin20ScriptedEffectLoader10metaObjectEv@Base 4:5.24.3-deepin.1.9
 _ZNK4KWin20ScriptedEffectLoader14findAllEffectsEv@Base 4:5.24.3-deepin.1.9
 _ZNK4KWin20ScriptedEffectLoader17isEffectSupportedERK7QString@Base 4:5.24.3-deepin.1.9
 _ZNK4KWin20ScriptedEffectLoader18listOfKnownEffectsEv@Base 4:5.24.3-deepin.1.9
 _ZNK4KWin20ScriptedEffectLoader9hasEffectERK7QString@Base 4:5.24.3-deepin.1.9
 _ZNK4KWin20SoftwareVsyncMonitor10metaObjectEv@Base 4:5.24.3-deepin.1.9
 _ZNK4KWin20SoftwareVsyncMonitor11refreshRateEv@Base 4:5.24.3-deepin.1.9
 _ZNK4KWin20SurfacePixmapWayland10metaObjectEv@Base 4:5.24.3-deepin.1.9
 _ZNK4KWin20SurfacePixmapWayland4itemEv@Base 4:5.24.3-deepin.1.9
 _ZNK4KWin20SurfacePixmapWayland6bufferEv@Base 4:5.24.3-deepin.1.9
 _ZNK4KWin20SurfacePixmapWayland7isValidEv@Base 4:5.24.3-deepin.1.9
 _ZNK4KWin20SurfacePixmapWayland7surfaceEv@Base 4:5.24.3-deepin.1.9
 _ZNK4KWin21AbstractWaylandOutput10metaObjectEv@Base 4:5.24.3-deepin.1.9
 _ZNK4KWin21AbstractWaylandOutput11descriptionEv@Base 4:5.24.3-deepin.1.9
 _ZNK4KWin21AbstractWaylandOutput11refreshRateEv@Base 4:5.24.3-deepin.1.9
 _ZNK4KWin21AbstractWaylandOutput12capabilitiesEv@Base 4:5.24.3-deepin.1.9
 _ZNK4KWin21AbstractWaylandOutput12manufacturerEv@Base 4:5.24.3-deepin.1.9
 _ZNK4KWin21AbstractWaylandOutput12physicalSizeEv@Base 4:5.24.3-deepin.1.9
 _ZNK4KWin21AbstractWaylandOutput12serialNumberEv@Base 4:5.24.3-deepin.1.9
 _ZNK4KWin21AbstractWaylandOutput13isPlaceholderEv@Base 4:5.24.3-deepin.1.9
 _ZNK4KWin21AbstractWaylandOutput13orientateSizeERK5QSize@Base 4:5.24.3-deepin.1.9
 _ZNK4KWin21AbstractWaylandOutput4edidEv@Base 4:5.24.3-deepin.1.9
 _ZNK4KWin21AbstractWaylandOutput4nameEv@Base 4:5.24.3-deepin.1.9
 _ZNK4KWin21AbstractWaylandOutput4uuidEv@Base 4:5.24.3-deepin.1.9
 _ZNK4KWin21AbstractWaylandOutput5modelEv@Base 4:5.24.3-deepin.1.9
 _ZNK4KWin21AbstractWaylandOutput5modesEv@Base 4:5.24.3-deepin.1.9
 _ZNK4KWin21AbstractWaylandOutput5scaleEv@Base 4:5.24.3-deepin.1.9
 _ZNK4KWin21AbstractWaylandOutput6eisaIdEv@Base 4:5.24.3-deepin.1.9
 _ZNK4KWin21AbstractWaylandOutput8dpmsModeEv@Base 4:5.24.3-deepin.1.9
 _ZNK4KWin21AbstractWaylandOutput8geometryEv@Base 4:5.24.3-deepin.1.9
 _ZNK4KWin21AbstractWaylandOutput8modeSizeEv@Base 4:5.24.3-deepin.1.9
 _ZNK4KWin21AbstractWaylandOutput8overscanEv@Base 4:5.24.3-deepin.1.9
 _ZNK4KWin21AbstractWaylandOutput8rgbRangeEv@Base 4:5.24.3-deepin.1.9
 _ZNK4KWin21AbstractWaylandOutput8subPixelEv@Base 4:5.24.3-deepin.1.9
 _ZNK4KWin21AbstractWaylandOutput9isEnabledEv@Base 4:5.24.3-deepin.1.9
 _ZNK4KWin21AbstractWaylandOutput9pixelSizeEv@Base 4:5.24.3-deepin.1.9
 _ZNK4KWin21AbstractWaylandOutput9transformEv@Base 4:5.24.3-deepin.1.9
 _ZNK4KWin21AbstractWaylandOutput9vrrPolicyEv@Base 4:5.24.3-deepin.1.9
 _ZNK4KWin21ModifierOnlyShortcuts10metaObjectEv@Base 4:5.24.3-deepin.1.9
 _ZNK4KWin21SurfacePixmapInternal10metaObjectEv@Base 4:5.24.3-deepin.1.9
 _ZNK4KWin21SurfacePixmapInternal3fboEv@Base 4:5.24.3-deepin.1.9
 _ZNK4KWin21SurfacePixmapInternal5imageEv@Base 4:5.24.3-deepin.1.9
 _ZNK4KWin21SurfacePixmapInternal7isValidEv@Base 4:5.24.3-deepin.1.9
 _ZNK4KWin21VirtualDesktopManager10metaObjectEv@Base 4:5.24.3-deepin.1.9
 _ZNK4KWin21VirtualDesktopManager11defaultNameEi@Base 4:5.24.3-deepin.1.9
 _ZNK4KWin21VirtualDesktopManager12desktopForIdERK7QString@Base 4:5.24.3-deepin.1.9
 _ZNK4KWin21VirtualDesktopManager14currentDesktopEv@Base 4:5.24.3-deepin.1.9
 _ZNK4KWin21VirtualDesktopManager15desktopForX11IdEj@Base 4:5.24.3-deepin.1.9
 _ZNK4KWin21VirtualDesktopManager23desktopChangedDirectionEv@Base 4:5.24.3-deepin.1.9
 _ZNK4KWin21VirtualDesktopManager4nextEPNS_14VirtualDesktopEb@Base 4:5.24.3-deepin.1.9
 _ZNK4KWin21VirtualDesktopManager4rowsEv@Base 4:5.24.3-deepin.1.9
 _ZNK4KWin21VirtualDesktopManager5aboveEPNS_14VirtualDesktopEb@Base 4:5.24.3-deepin.1.9
 _ZNK4KWin21VirtualDesktopManager5aboveEjb@Base 4:5.24.3-deepin.1.9
 _ZNK4KWin21VirtualDesktopManager5belowEPNS_14VirtualDesktopEb@Base 4:5.24.3-deepin.1.9
 _ZNK4KWin21VirtualDesktopManager5belowEjb@Base 4:5.24.3-deepin.1.9
 _ZNK4KWin21VirtualDesktopManager6toLeftEPNS_14VirtualDesktopEb@Base 4:5.24.3-deepin.1.9
 _ZNK4KWin21VirtualDesktopManager6toLeftEjb@Base 4:5.24.3-deepin.1.9
 _ZNK4KWin21VirtualDesktopManager7currentEv@Base 4:5.24.3-deepin.1.9
 _ZNK4KWin21VirtualDesktopManager7toRightEPNS_14VirtualDesktopEb@Base 4:5.24.3-deepin.1.9
 _ZNK4KWin21VirtualDesktopManager7toRightEjb@Base 4:5.24.3-deepin.1.9
 _ZNK4KWin21VirtualDesktopManager8previousEPNS_14VirtualDesktopEb@Base 4:5.24.3-deepin.1.9
 _ZNK4KWin22QPainterSurfaceTexture5imageEv@Base 4:5.24.3-deepin.1.9
 _ZNK4KWin22QPainterSurfaceTexture7backendEv@Base 4:5.24.3-deepin.1.9
 _ZNK4KWin22QPainterSurfaceTexture7isValidEv@Base 4:5.24.3-deepin.1.9
 _ZNK4KWin23PointerInputRedirection10metaObjectEv@Base 4:5.24.3-deepin.1.9
 _ZNK4KWin23PointerInputRedirection15supportsWarpingEv@Base 4:5.24.3-deepin.1.9
 _ZNK4KWin23PointerInputRedirection17areButtonsPressedEv@Base 4:5.24.3-deepin.1.9
 _ZNK4KWin23PointerInputRedirection23applyPointerConfinementERK7QPointF@Base 4:5.24.3-deepin.1.9
 _ZNK4KWin23PointerInputRedirection8positionEv@Base 4:5.24.3-deepin.1.9
 _ZNK4KWin24KeyboardInputRedirection10metaObjectEv@Base 4:5.24.3-deepin.1.9
 _ZNK4KWin26ApplicationWaylandAbstract10metaObjectEv@Base 4:5.24.3-deepin.1.9
 _ZNK4KWin26EglContextAttributeBuilder5buildEv@Base 4:5.24.3-deepin.1.9
 _ZNK4KWin26XdgActivationV1Integration10metaObjectEv@Base 4:5.24.3-deepin.1.9
 _ZNK4KWin29BasicEGLSurfaceTextureWayland7backendEv@Base 4:5.24.3-deepin.1.9
 _ZNK4KWin34EglOpenGLESContextAttributeBuilder5buildEv@Base 4:5.24.3-deepin.1.9
 _ZNK4KWin37AbstractOpenGLContextAttributeBuilderlsE6QDebug@Base 4:5.24.3-deepin.1.9
 _ZNK4KWin3Xcb10Extensions10extensionsEv@Base 4:5.24.3-deepin.1.9
 _ZNK4KWin3Xcb10Extensions16randrNotifyEventEv@Base 4:5.24.3-deepin.1.9
 _ZNK4KWin3Xcb10Extensions16shapeNotifyEventEv@Base 4:5.24.3-deepin.1.9
 _ZNK4KWin3Xcb10Extensions17damageNotifyEventEv@Base 4:5.24.3-deepin.1.9
 _ZNK4KWin3Xcb10Extensions20syncAlarmNotifyEventEv@Base 4:5.24.3-deepin.1.9
 _ZNK4KWin3Xcb10Extensions21isShapeInputAvailableEv@Base 4:5.24.3-deepin.1.9
 _ZNK4KWin3Xcb10Extensions22fixesCursorNotifyEventEv@Base 4:5.24.3-deepin.1.9
 _ZNK4KWin3Xcb10Extensions22isFixesRegionAvailableEv@Base 4:5.24.3-deepin.1.9
 _ZNK4KWin3Xcb10Extensions25fixesSelectionNotifyEventEv@Base 4:5.24.3-deepin.1.9
 _ZNK4KWin3Xcb10Extensions27isCompositeOverlayAvailableEv@Base 4:5.24.3-deepin.1.9
 _ZNK4KWin3Xcb10Extensions8hasShapeEj@Base 4:5.24.3-deepin.1.9
 _ZNK4KWin3Xkb10layoutNameEj@Base 4:5.24.3-deepin.1.9
 _ZNK4KWin3Xkb10layoutNameEv@Base 4:5.24.3-deepin.1.9
 _ZNK4KWin3Xkb10metaObjectEv@Base 4:5.24.3-deepin.1.9
 _ZNK4KWin3Xkb14keymapContentsEv@Base 4:5.24.3-deepin.1.9
 _ZNK4KWin3Xkb15layoutShortNameEi@Base 4:5.24.3-deepin.1.9
 _ZNK4KWin3Xkb15numberOfLayoutsEv@Base 4:5.24.3-deepin.1.9
 _ZNK4KWin3Xkb15shouldKeyRepeatEj@Base 4:5.24.3-deepin.1.9
 _ZNK4KWin3Xkb22enableCrtlAltShortcutsEv@Base 4:5.24.3-deepin.1.9
 _ZNK4KWin3Xkb35modifiersRelevantForGlobalShortcutsEj@Base 4:5.24.3-deepin.1.9
 _ZNK4KWin3Xkb7toQtKeyEjj6QFlagsIN2Qt16KeyboardModifierEEb@Base 4:5.24.3-deepin.1.9
 _ZNK4KWin4Edge10metaObjectEv@Base 4:5.24.3-deepin.1.9
 _ZNK4KWin4Edge11triggersForERK6QPoint@Base 4:5.24.3-deepin.1.9
 _ZNK4KWin4Edge14approachWindowEv@Base 4:5.24.3-deepin.1.9
 _ZNK4KWin4Edge19activatesForPointerEv@Base 4:5.24.3-deepin.1.9
 _ZNK4KWin4Edge24activatesForTouchGestureEv@Base 4:5.24.3-deepin.1.9
 _ZNK4KWin4Edge6windowEv@Base 4:5.24.3-deepin.1.9
 _ZNK4KWin4Item10buildQuadsEv@Base 4:5.24.3-deepin.1.9
 _ZNK4KWin4Item10childItemsEv@Base 4:5.24.3-deepin.1.9
 _ZNK4KWin4Item10metaObjectEv@Base 4:5.24.3-deepin.1.9
 _ZNK4KWin4Item10parentItemEv@Base 4:5.24.3-deepin.1.9
 _ZNK4KWin4Item11mapToGlobalERK5QRect@Base 4:5.24.3-deepin.1.9
 _ZNK4KWin4Item11mapToGlobalERK7QRegion@Base 4:5.24.3-deepin.1.9
 _ZNK4KWin4Item12boundingRectEv@Base 4:5.24.3-deepin.1.9
 _ZNK4KWin4Item12rootPositionEv@Base 4:5.24.3-deepin.1.9
 _ZNK4KWin4Item16sortedChildItemsEv@Base 4:5.24.3-deepin.1.9
 _ZNK4KWin4Item1zEv@Base 4:5.24.3-deepin.1.9
 _ZNK4KWin4Item26computeEffectiveVisibilityEv@Base 4:5.24.3-deepin.1.9
 _ZNK4KWin4Item4rectEv@Base 4:5.24.3-deepin.1.9
 _ZNK4KWin4Item4sizeEv@Base 4:5.24.3-deepin.1.9
 _ZNK4KWin4Item5quadsEv@Base 4:5.24.3-deepin.1.9
 _ZNK4KWin4Item8positionEv@Base 4:5.24.3-deepin.1.9
 _ZNK4KWin4Item8repaintsEPNS_14AbstractOutputE@Base 4:5.24.3-deepin.1.9
 _ZNK4KWin4Item9isVisibleEv@Base 4:5.24.3-deepin.1.9
 _ZNK4KWin4Item9transformEv@Base 4:5.24.3-deepin.1.9
 _ZNK4KWin5Scene10metaObjectEv@Base 4:5.24.3-deepin.1.9
 _ZNK4KWin5Scene12scenePainterEv@Base 4:5.24.3-deepin.1.9
 _ZNK4KWin5Scene19supportsNativeFenceEv@Base 4:5.24.3-deepin.1.9
 _ZNK4KWin5Scene20qpainterRenderBufferEPNS_14AbstractOutputE@Base 4:5.24.3-deepin.1.9
 _ZNK4KWin5Scene22screenProjectionMatrixEv@Base 4:5.24.3-deepin.1.9
 _ZNK4KWin5Scene33openGLPlatformInterfaceExtensionsEv@Base 4:5.24.3-deepin.1.9
 _ZNK4KWin5Scene6Window10metaObjectEv@Base 4:5.24.3-deepin.1.9
 _ZNK4KWin5Scene6Window10shadowItemEv@Base 4:5.24.3-deepin.1.9
 _ZNK4KWin5Scene6Window10windowItemEv@Base 4:5.24.3-deepin.1.9
 _ZNK4KWin5Scene6Window11surfaceItemEv@Base 4:5.24.3-deepin.1.9
 _ZNK4KWin5Scene6Window15decorationShapeEv@Base 4:5.24.3-deepin.1.9
 _ZNK4KWin5Scene6Window17isPaintingEnabledEv@Base 4:5.24.3-deepin.1.9
 _ZNK4KWin5Scene6Window8isOpaqueEv@Base 4:5.24.3-deepin.1.9
 _ZNK4KWin5Scene6Window9isVisibleEv@Base 4:5.24.3-deepin.1.9
 _ZNK4KWin5Scene8geometryEv@Base 4:5.24.3-deepin.1.9
 _ZNK4KWin5Scene8repaintsEPNS_14AbstractOutputE@Base 4:5.24.3-deepin.1.9
 _ZNK4KWin6Cursor10metaObjectEv@Base 4:5.24.3-deepin.1.9
 _ZNK4KWin6Cursor4rectEv@Base 4:5.24.3-deepin.1.9
 _ZNK4KWin6Cursor8geometryEv@Base 4:5.24.3-deepin.1.9
 _ZNK4KWin6Plugin10metaObjectEv@Base 4:5.24.3-deepin.1.9
 _ZNK4KWin6Shadow10metaObjectEv@Base 4:5.24.3-deepin.1.9
 _ZNK4KWin6Shadow11elementSizeENS0_14ShadowElementsE@Base 4:5.24.3-deepin.1.9
 _ZNK4KWin6Shadow21decorationShadowImageEv@Base 4:5.24.3-deepin.1.9
 _ZNK4KWin6Shadow8toplevelEv@Base 4:5.24.3-deepin.1.9
 _ZNK4KWin6TabBox6TabBox10metaObjectEv@Base 4:5.24.3-deepin.1.9
 _ZNK4KWin6TabBox6TabBox16nextClientStaticEPNS_14AbstractClientE@Base 4:5.24.3-deepin.1.9
 _ZNK4KWin6TabBox6TabBox17nextDesktopStaticEi@Base 4:5.24.3-deepin.1.9
 _ZNK4KWin6TabBox6TabBox20previousClientStaticEPNS_14AbstractClientE@Base 4:5.24.3-deepin.1.9
 _ZNK4KWin6TabBox6TabBox21previousDesktopStaticEi@Base 4:5.24.3-deepin.1.9
 _ZNK4KWin7Cursors10metaObjectEv@Base 4:5.24.3-deepin.1.9
 _ZNK4KWin7Cursors14isCursorHiddenEv@Base 4:5.24.3-deepin.1.9
 _ZNK4KWin7Deleted10activitiesEv@Base 4:5.24.3-deepin.1.9
 _ZNK4KWin7Deleted10metaObjectEv@Base 4:5.24.3-deepin.1.9
 _ZNK4KWin7Deleted10windowRoleEv@Base 4:5.24.3-deepin.1.9
 _ZNK4KWin7Deleted10windowTypeEbi@Base 4:5.24.3-deepin.1.9
 _ZNK4KWin7Deleted12frameMarginsEv@Base 4:5.24.3-deepin.1.9
 _ZNK4KWin7Deleted13x11DesktopIdsEv@Base 4:5.24.3-deepin.1.9
 _ZNK4KWin7Deleted21layoutDecorationRectsER5QRectS2_S2_S2_@Base 4:5.24.3-deepin.1.9
 _ZNK4KWin7Deleted7desktopEv@Base 4:5.24.3-deepin.1.9
 _ZNK4KWin7Deleted7frameIdEv@Base 4:5.24.3-deepin.1.9
 _ZNK4KWin7Deleted8desktopsEv@Base 4:5.24.3-deepin.1.9
 _ZNK4KWin7Deleted9clientPosEv@Base 4:5.24.3-deepin.1.9
 _ZNK4KWin7Deleted9isDeletedEv@Base 4:5.24.3-deepin.1.9
 _ZNK4KWin7Options10metaObjectEv@Base 4:5.24.3-deepin.1.9
 _ZNK4KWin7Options13latencyPolicyEv@Base 4:5.24.3-deepin.1.9
 _ZNK4KWin7Options14condensedTitleEv@Base 4:5.24.3-deepin.1.9
 _ZNK4KWin7Options16isUseCompositingEv@Base 4:5.24.3-deepin.1.9
 _ZNK4KWin7Options19animationTimeFactorEv@Base 4:5.24.3-deepin.1.9
 _ZNK4KWin7Options19renderTimeEstimatorEv@Base 4:5.24.3-deepin.1.9
 _ZNK4KWin7Options19wheelToMouseCommandENS0_17MouseWheelCommandEi@Base 4:5.24.3-deepin.1.9
 _ZNK4KWin7Options23operationMaxButtonClickE6QFlagsIN2Qt11MouseButtonEE@Base 4:5.24.3-deepin.1.9
 _ZNK4KWin7Options24modifierOnlyDBusShortcutEN2Qt16KeyboardModifierE@Base 4:5.24.3-deepin.1.9
 _ZNK4KWin7Screens10findOutputEi@Base 4:5.24.3-deepin.1.9
 _ZNK4KWin7Screens10metaObjectEv@Base 4:5.24.3-deepin.1.9
 _ZNK4KWin7Screens12intersectingERK5QRect@Base 4:5.24.3-deepin.1.9
 _ZNK4KWin7Screens5scaleEi@Base 4:5.24.3-deepin.1.9
 _ZNK4KWin7Screens6numberERK6QPoint@Base 4:5.24.3-deepin.1.9
 _ZNK4KWin7Screens8geometryEi@Base 4:5.24.3-deepin.1.9
 _ZNK4KWin7Screens8maxScaleEv@Base 4:5.24.3-deepin.1.9
 _ZNK4KWin7Session10metaObjectEv@Base 4:5.24.3-deepin.1.9
 _ZNK4KWin8LibInput10Connection10metaObjectEv@Base 4:5.24.3-deepin.1.9
 _ZNK4KWin8LibInput10Connection15devicesSysNamesEv@Base 4:5.24.3-deepin.1.9
 _ZNK4KWin8LibInput6Device10metaObjectEv@Base 4:5.24.3-deepin.1.9
 _ZNK4KWin8LibInput6Device10ringsCountEv@Base 4:5.24.3-deepin.1.9
 _ZNK4KWin8LibInput6Device11stripsCountEv@Base 4:5.24.3-deepin.1.9
 _ZNK4KWin8LibInput6Device13groupUserDataEv@Base 4:5.24.3-deepin.1.9
 _ZNK4KWin8LibInput6Device4ledsEv@Base 4:5.24.3-deepin.1.9
 _ZNK4KWin8LibInput6Device6outputEv@Base 4:5.24.3-deepin.1.9
 _ZNK4KWin8Platform10findOutputERK5QUuid@Base 4:5.24.3-deepin.1.9
 _ZNK4KWin8Platform10findOutputERK7QString@Base 4:5.24.3-deepin.1.9
 _ZNK4KWin8Platform10findOutputEi@Base 4:5.24.3-deepin.1.9
 _ZNK4KWin8Platform10metaObjectEv@Base 4:5.24.3-deepin.1.9
 _ZNK4KWin8Platform10renderLoopEv@Base 4:5.24.3-deepin.1.9
 _ZNK4KWin8Platform10screenSizeEv@Base 4:5.24.3-deepin.1.9
 _ZNK4KWin8Platform11cursorImageEv@Base 4:5.24.3-deepin.1.9
 _ZNK4KWin8Platform15sceneEglDisplayEv@Base 4:5.24.3-deepin.1.9
 _ZNK4KWin8Platform18supportInformationEv@Base 4:5.24.3-deepin.1.9
 _ZNK4KWin8Platform19compositingPossibleEv@Base 4:5.24.3-deepin.1.9
 _ZNK4KWin8Platform19requiresCompositingEv@Base 4:5.24.3-deepin.1.9
 _ZNK4KWin8Platform19supportsNativeFenceEv@Base 4:5.24.3-deepin.1.9
 _ZNK4KWin8Platform25openGLCompositingIsBrokenEv@Base 4:5.24.3-deepin.1.9
 _ZNK4KWin8Platform26sceneEglGlobalShareContextEv@Base 4:5.24.3-deepin.1.9
 _ZNK4KWin8Platform27isPerScreenRenderingEnabledEv@Base 4:5.24.3-deepin.1.9
 _ZNK4KWin8Platform28compositingNotPossibleReasonEv@Base 4:5.24.3-deepin.1.9
 _ZNK4KWin8Platform8outputAtERK6QPoint@Base 4:5.24.3-deepin.1.9
 _ZNK4KWin8RuleBook10metaObjectEv@Base 4:5.24.3-deepin.1.9
 _ZNK4KWin8Toplevel10inputShapeEv@Base 4:5.24.3-deepin.1.9
 _ZNK4KWin8Toplevel10isInternalEv@Base 4:5.24.3-deepin.1.9
 _ZNK4KWin8Toplevel10isOnOutputEPNS_14AbstractOutputE@Base 4:5.24.3-deepin.1.9
 _ZNK4KWin8Toplevel10isOverrideEv@Base 4:5.24.3-deepin.1.9
 _ZNK4KWin8Toplevel10mapToFrameERK6QPoint@Base 4:5.24.3-deepin.1.9
 _ZNK4KWin8Toplevel10mapToLocalERK6QPoint@Base 4:5.24.3-deepin.1.9
 _ZNK4KWin8Toplevel10mapToLocalERK7QPointF@Base 4:5.24.3-deepin.1.9
 _ZNK4KWin8Toplevel10metaObjectEv@Base 4:5.24.3-deepin.1.9
 _ZNK4KWin8Toplevel10windowItemEv@Base 4:5.24.3-deepin.1.9
 _ZNK4KWin8Toplevel10windowRoleEv@Base 4:5.24.3-deepin.1.9
 _ZNK4KWin8Toplevel11isLocalhostEv@Base 4:5.24.3-deepin.1.9
 _ZNK4KWin8Toplevel11isOnDesktopEPNS_14VirtualDesktopE@Base 4:5.24.3-deepin.1.9
 _ZNK4KWin8Toplevel11isOnDesktopEi@Base 4:5.24.3-deepin.1.9
 _ZNK4KWin8Toplevel11shapeRegionEv@Base 4:5.24.3-deepin.1.9
 _ZNK4KWin8Toplevel11surfaceItemEv@Base 4:5.24.3-deepin.1.9
 _ZNK4KWin8Toplevel12frameMarginsEv@Base 4:5.24.3-deepin.1.9
 _ZNK4KWin8Toplevel12isLockScreenEv@Base 4:5.24.3-deepin.1.9
 _ZNK4KWin8Toplevel12isStandAloneEv@Base 4:5.24.3-deepin.1.9
 _ZNK4KWin8Toplevel12mapFromLocalERK7QPointF@Base 4:5.24.3-deepin.1.9
 _ZNK4KWin8Toplevel13inputGeometryEv@Base 4:5.24.3-deepin.1.9
 _ZNK4KWin8Toplevel13isInputMethodEv@Base 4:5.24.3-deepin.1.9
 _ZNK4KWin8Toplevel13isPopupWindowEv@Base 4:5.24.3-deepin.1.9
 _ZNK4KWin8Toplevel13stackingOrderEv@Base 4:5.24.3-deepin.1.9
 _ZNK4KWin8Toplevel14isNormalWindowEv@Base 4:5.24.3-deepin.1.9
 _ZNK4KWin8Toplevel14wmClientLeaderEv@Base 4:5.24.3-deepin.1.9
 _ZNK4KWin8Toplevel15isOnAllDesktopsEv@Base 4:5.24.3-deepin.1.9
 _ZNK4KWin8Toplevel15visibleGeometryEv@Base 4:5.24.3-deepin.1.9
 _ZNK4KWin8Toplevel15wmClientMachineEb@Base 4:5.24.3-deepin.1.9
 _ZNK4KWin8Toplevel16isOnActiveOutputEv@Base 4:5.24.3-deepin.1.9
 _ZNK4KWin8Toplevel18isOnCurrentDesktopEv@Base 4:5.24.3-deepin.1.9
 _ZNK4KWin8Toplevel18isShowSplitoutlineEv@Base 4:5.24.3-deepin.1.9
 _ZNK4KWin8Toplevel19fetchWmClientLeaderEv@Base 4:5.24.3-deepin.1.9
 _ZNK4KWin8Toplevel19inputTransformationEv@Base 4:5.24.3-deepin.1.9
 _ZNK4KWin8Toplevel19isOnCurrentActivityEv@Base 4:5.24.3-deepin.1.9
 _ZNK4KWin8Toplevel19skipsCloseAnimationEv@Base 4:5.24.3-deepin.1.9
 _ZNK4KWin8Toplevel22isActiveFullScreenRoleEv@Base 4:5.24.3-deepin.1.9
 _ZNK4KWin8Toplevel23fetchSkipCloseAnimationEv@Base 4:5.24.3-deepin.1.9
 _ZNK4KWin8Toplevel23wantsShadowToBeRenderedEv@Base 4:5.24.3-deepin.1.9
 _ZNK4KWin8Toplevel3pidEv@Base 4:5.24.3-deepin.1.9
 _ZNK4KWin8Toplevel6outputEv@Base 4:5.24.3-deepin.1.9
 _ZNK4KWin8Toplevel6screenEv@Base 4:5.24.3-deepin.1.9
 _ZNK4KWin8Toplevel6shadowEv@Base 4:5.24.3-deepin.1.9
 _ZNK4KWin8Toplevel7frameIdEv@Base 4:5.24.3-deepin.1.9
 _ZNK4KWin8Toplevel7hitTestERK6QPoint@Base 4:5.24.3-deepin.1.9
 _ZNK4KWin8Toplevel7opacityEv@Base 4:5.24.3-deepin.1.9
 _ZNK4KWin8Toplevel7surfaceEv@Base 4:5.24.3-deepin.1.9
 _ZNK4KWin8Toplevel8isClientEv@Base 4:5.24.3-deepin.1.9
 _ZNK4KWin8Toplevel8isDialogEv@Base 4:5.24.3-deepin.1.9
 _ZNK4KWin8Toplevel8isSplashEv@Base 4:5.24.3-deepin.1.9
 _ZNK4KWin8Toplevel9isDeletedEv@Base 4:5.24.3-deepin.1.9
 _ZNK4KWin8Toplevel9isDesktopEv@Base 4:5.24.3-deepin.1.9
 _ZNK4KWin8Toplevel9isOutlineEv@Base 4:5.24.3-deepin.1.9
 _ZNK4KWin8Toplevel9isToolbarEv@Base 4:5.24.3-deepin.1.9
 _ZNK4KWin8Toplevel9sessionIdEv@Base 4:5.24.3-deepin.1.9
 _ZNK4KWin9GammaRamp3redEv@Base 4:5.24.3-deepin.1.9
 _ZNK4KWin9GammaRamp4blueEv@Base 4:5.24.3-deepin.1.9
 _ZNK4KWin9GammaRamp4sizeEv@Base 4:5.24.3-deepin.1.9
 _ZNK4KWin9GammaRamp5greenEv@Base 4:5.24.3-deepin.1.9
 _ZNK4KWin9Scripting10findScriptERK7QString@Base 4:5.24.3-deepin.1.9
 _ZNK4KWin9Scripting10metaObjectEv@Base 4:5.24.3-deepin.1.9
 _ZNK4KWin9Scripting14isScriptLoadedERK7QString@Base 4:5.24.3-deepin.1.9
 _ZNK4KWin9Unmanaged10activitiesEv@Base 4:5.24.3-deepin.1.9
 _ZNK4KWin9Unmanaged10metaObjectEv@Base 4:5.24.3-deepin.1.9
 _ZNK4KWin9Unmanaged10windowTypeEbi@Base 4:5.24.3-deepin.1.9
 _ZNK4KWin9Unmanaged18findInternalWindowEv@Base 4:5.24.3-deepin.1.9
 _ZNK4KWin9Unmanaged19hasScheduledReleaseEv@Base 4:5.24.3-deepin.1.9
 _ZNK4KWin9Unmanaged7desktopEv@Base 4:5.24.3-deepin.1.9
 _ZNK4KWin9Unmanaged8desktopsEv@Base 4:5.24.3-deepin.1.9
 _ZNK4KWin9Unmanaged9clientPosEv@Base 4:5.24.3-deepin.1.9
 _ZNK4KWin9Unmanaged9isOutlineEv@Base 4:5.24.3-deepin.1.9
 _ZNK4KWin9Workspace10clientAreaENS_16clientAreaOptionEPKNS_14AbstractOutputEPKNS_14VirtualDesktopE@Base 4:5.24.3-deepin.1.9
 _ZNK4KWin9Workspace10clientAreaENS_16clientAreaOptionEPKNS_8ToplevelE@Base 4:5.24.3-deepin.1.9
 _ZNK4KWin9Workspace10clientAreaENS_16clientAreaOptionEPKNS_8ToplevelEPKNS_14AbstractOutputE@Base 4:5.24.3-deepin.1.9
 _ZNK4KWin9Workspace10clientAreaENS_16clientAreaOptionEPKNS_8ToplevelERK6QPoint@Base 4:5.24.3-deepin.1.9
 _ZNK4KWin9Workspace10clientAreaENS_16clientAreaOptionERK6QPointi@Base 4:5.24.3-deepin.1.9
 _ZNK4KWin9Workspace10clientAreaENS_16clientAreaOptionEii@Base 4:5.24.3-deepin.1.9
 _ZNK4KWin9Workspace10findClientENS_9PredicateEj@Base 4:5.24.3-deepin.1.9
 _ZNK4KWin9Workspace10findClientESt8functionIFbPKNS_9X11ClientEEE@Base 4:5.24.3-deepin.1.9
 _ZNK4KWin9Workspace10metaObjectEv@Base 4:5.24.3-deepin.1.9
 _ZNK4KWin9Workspace10nextOutputEPNS_14AbstractOutputE@Base 4:5.24.3-deepin.1.9
 _ZNK4KWin9Workspace11findDesktopEbPNS_14VirtualDesktopE@Base 4:5.24.3-deepin.1.9
 _ZNK4KWin9Workspace12activeOutputEv@Base 4:5.24.3-deepin.1.9
 _ZNK4KWin9Workspace12findInternalEP7QWindow@Base 4:5.24.3-deepin.1.9
 _ZNK4KWin9Workspace12findToplevelERK5QUuid@Base 4:5.24.3-deepin.1.9
 _ZNK4KWin9Workspace12findToplevelESt8functionIFbPKNS_8ToplevelEEE@Base 4:5.24.3-deepin.1.9
 _ZNK4KWin9Workspace13cascadeOffsetEPKNS_14AbstractClientE@Base 4:5.24.3-deepin.1.9
 _ZNK4KWin9Workspace13findUnmanagedESt8functionIFbPKNS_9UnmanagedEEE@Base 4:5.24.3-deepin.1.9
 _ZNK4KWin9Workspace13findUnmanagedEj@Base 4:5.24.3-deepin.1.9
 _ZNK4KWin9Workspace14packPositionUpEPKNS_14AbstractClientEib@Base 4:5.24.3-deepin.1.9
 _ZNK4KWin9Workspace14previousOutputEPNS_14AbstractOutputE@Base 4:5.24.3-deepin.1.9
 _ZNK4KWin9Workspace14xStackingOrderEv@Base 4:5.24.3-deepin.1.9
 _ZNK4KWin9Workspace15oldDisplayWidthEv@Base 4:5.24.3-deepin.1.9
 _ZNK4KWin9Workspace16adjustClientAreaEPNS_14AbstractClientERK5QRect@Base 4:5.24.3-deepin.1.9
 _ZNK4KWin9Workspace16clientUnderMouseEPNS_14AbstractOutputE@Base 4:5.24.3-deepin.1.9
 _ZNK4KWin9Workspace16oldDisplayHeightEv@Base 4:5.24.3-deepin.1.9
 _ZNK4KWin9Workspace16packPositionDownEPKNS_14AbstractClientEib@Base 4:5.24.3-deepin.1.9
 _ZNK4KWin9Workspace16packPositionLeftEPKNS_14AbstractClientEib@Base 4:5.24.3-deepin.1.9
 _ZNK4KWin9Workspace16previewingClientEPKNS_14AbstractClientE@Base 4:5.24.3-deepin.1.9
 _ZNK4KWin9Workspace17packPositionRightEPKNS_14AbstractClientEib@Base 4:5.24.3-deepin.1.9
 _ZNK4KWin9Workspace17shortcutAvailableERK12QKeySequencePNS_14AbstractClientE@Base 4:5.24.3-deepin.1.9
 _ZNK4KWin9Workspace18findAbstractClientERK5QUuid@Base 4:5.24.3-deepin.1.9
 _ZNK4KWin9Workspace18findAbstractClientESt8functionIFbPKNS_14AbstractClientEEE@Base 4:5.24.3-deepin.1.9
 _ZNK4KWin9Workspace18inUpdateClientAreaEv@Base 4:5.24.3-deepin.1.9
 _ZNK4KWin9Workspace18restrictedMoveAreaEPKNS_14VirtualDesktopE6QFlagsINS_9StrutAreaEE@Base 4:5.24.3-deepin.1.9
 _ZNK4KWin9Workspace18supportInformationEv@Base 4:5.24.3-deepin.1.9
 _ZNK4KWin9Workspace18topClientOnDesktopEPNS_14VirtualDesktopEPNS_14AbstractOutputEbb@Base 4:5.24.3-deepin.1.9
 _ZNK4KWin9Workspace19ensureStackingOrderERK5QListIPNS_14AbstractClientEE@Base 4:5.24.3-deepin.1.9
 _ZNK4KWin9Workspace19ensureStackingOrderERK5QListIPNS_9X11ClientEE@Base 4:5.24.3-deepin.1.9
 _ZNK4KWin9Workspace19previousScreenSizesEv@Base 4:5.24.3-deepin.1.9
 _ZNK4KWin9Workspace20previewingClientListEv@Base 4:5.24.3-deepin.1.9
 _ZNK4KWin9Workspace21findClientLeaderGroupEPKNS_9X11ClientE@Base 4:5.24.3-deepin.1.9
 _ZNK4KWin9Workspace26previousRestrictedMoveAreaEPKNS_14VirtualDesktopE6QFlagsINS_9StrutAreaEE@Base 4:5.24.3-deepin.1.9
 _ZNK4KWin9Workspace8geometryEv@Base 4:5.24.3-deepin.1.9
 _ZNK4KWin9Workspace9findGroupEj@Base 4:5.24.3-deepin.1.9
 _ZNK4KWin9X11Client10activitiesEv@Base 4:5.24.3-deepin.1.9
 _ZNK4KWin9X11Client10metaObjectEv@Base 4:5.24.3-deepin.1.9
 _ZNK4KWin9X11Client10wantsInputEv@Base 4:5.24.3-deepin.1.9
 _ZNK4KWin9X11Client10windowTypeEbi@Base 4:5.24.3-deepin.1.9
 _ZNK4KWin9X11Client11isCloseableEv@Base 4:5.24.3-deepin.1.9
 _ZNK4KWin9X11Client11isResizableEv@Base 4:5.24.3-deepin.1.9
 _ZNK4KWin9X11Client11isShadeableEv@Base 4:5.24.3-deepin.1.9
 _ZNK4KWin9X11Client11isTransientEv@Base 4:5.24.3-deepin.1.9
 _ZNK4KWin9X11Client11mainClientsEv@Base 4:5.24.3-deepin.1.9
 _ZNK4KWin9X11Client12acceptsFocusEv@Base 4:5.24.3-deepin.1.9
 _ZNK4KWin9X11Client12hasTransientEPKNS_14AbstractClientEb@Base 4:5.24.3-deepin.1.9
 _ZNK4KWin9X11Client12iconGeometryEv@Base 4:5.24.3-deepin.1.9
 _ZNK4KWin9X11Client12isFullScreenEv@Base 4:5.24.3-deepin.1.9
 _ZNK4KWin9X11Client12maximizeModeEv@Base 4:5.24.3-deepin.1.9
 _ZNK4KWin9X11Client12userNoBorderEv@Base 4:5.24.3-deepin.1.9
 _ZNK4KWin9X11Client13inputGeometryEv@Base 4:5.24.3-deepin.1.9
 _ZNK4KWin9X11Client13isMaximizableEv@Base 4:5.24.3-deepin.1.9
 _ZNK4KWin9X11Client13isMinimizableEb@Base 4:5.24.3-deepin.1.9
 _ZNK4KWin9X11Client14fetchTransientEv@Base 4:5.24.3-deepin.1.9
 _ZNK4KWin9X11Client14groupTransientEv@Base 4:5.24.3-deepin.1.9
 _ZNK4KWin9X11Client15fetchActivitiesEv@Base 4:5.24.3-deepin.1.9
 _ZNK4KWin9X11Client16belongsToDesktopEv@Base 4:5.24.3-deepin.1.9
 _ZNK4KWin9X11Client16isFullScreenableEv@Base 4:5.24.3-deepin.1.9
 _ZNK4KWin9X11Client16isHiddenInternalEv@Base 4:5.24.3-deepin.1.9
 _ZNK4KWin9X11Client16resizeIncrementsEv@Base 4:5.24.3-deepin.1.9
 _ZNK4KWin9X11Client16wantsSyncCounterEv@Base 4:5.24.3-deepin.1.9
 _ZNK4KWin9X11Client17gravityAdjustmentE13xcb_gravity_t@Base 4:5.24.3-deepin.1.9
 _ZNK4KWin9X11Client18fetchFirstInTabBoxEv@Base 4:5.24.3-deepin.1.9
 _ZNK4KWin9X11Client18userCanSetNoBorderEv@Base 4:5.24.3-deepin.1.9
 _ZNK4KWin9X11Client19clientPosToFramePosERK6QPoint@Base 4:5.24.3-deepin.1.9
 _ZNK4KWin9X11Client19constrainClientSizeERK5QSizeNS_14AbstractClient8SizeModeE@Base 4:5.24.3-deepin.1.9
 _ZNK4KWin9X11Client19framePosToClientPosERK6QPoint@Base 4:5.24.3-deepin.1.9
 _ZNK4KWin9X11Client19inputTransformationEv@Base 4:5.24.3-deepin.1.9
 _ZNK4KWin9X11Client19providesContextHelpEv@Base 4:5.24.3-deepin.1.9
 _ZNK4KWin9X11Client19supportsWindowRulesEv@Base 4:5.24.3-deepin.1.9
 _ZNK4KWin9X11Client20calculateGravitationEb@Base 4:5.24.3-deepin.1.9
 _ZNK4KWin9X11Client20hasTransientInternalEPKS0_bR5QListIS2_E@Base 4:5.24.3-deepin.1.9
 _ZNK4KWin9X11Client20preferredColorSchemeEv@Base 4:5.24.3-deepin.1.9
 _ZNK4KWin9X11Client20readUserCreationTimeEv@Base 4:5.24.3-deepin.1.9
 _ZNK4KWin9X11Client20userCanSetFullScreenEv@Base 4:5.24.3-deepin.1.9
 _ZNK4KWin9X11Client21clientSizeToFrameSizeERK5QSize@Base 4:5.24.3-deepin.1.9
 _ZNK4KWin9X11Client21fetchShowOnScreenEdgeEv@Base 4:5.24.3-deepin.1.9
 _ZNK4KWin9X11Client21frameRectToBufferRectERK5QRect@Base 4:5.24.3-deepin.1.9
 _ZNK4KWin9X11Client21frameSizeToClientSizeERK5QSize@Base 4:5.24.3-deepin.1.9
 _ZNK4KWin9X11Client22fullscreenMonitorsAreaE21NETFullscreenMonitors@Base 4:5.24.3-deepin.1.9
 _ZNK4KWin9X11Client22isMovableAcrossScreensEv@Base 4:5.24.3-deepin.1.9
 _ZNK4KWin9X11Client23fetchWindowForhibitMoveEv@Base 4:5.24.3-deepin.1.9
 _ZNK4KWin9X11Client24belongsToSameApplicationEPKNS_14AbstractClientE6QFlagsINS1_20SameApplicationCheckEE@Base 4:5.24.3-deepin.1.9
 _ZNK4KWin9X11Client24readPreferredColorSchemeERNS_3Xcb14StringPropertyE@Base 4:5.24.3-deepin.1.9
 _ZNK4KWin9X11Client24readUserTimeMapTimestampEPK14KStartupInfoIdPK16KStartupInfoDatab@Base 4:5.24.3-deepin.1.9
 _ZNK4KWin9X11Client25fetchPreferredColorSchemeEv@Base 4:5.24.3-deepin.1.9
 _ZNK4KWin9X11Client30fetchApplicationMenuObjectPathEv@Base 4:5.24.3-deepin.1.9
 _ZNK4KWin9X11Client31fetchApplicationMenuServiceNameEv@Base 4:5.24.3-deepin.1.9
 _ZNK4KWin9X11Client37isWaitingForInteractiveMoveResizeSyncEv@Base 4:5.24.3-deepin.1.9
 _ZNK4KWin9X11Client5groupEv@Base 4:5.24.3-deepin.1.9
 _ZNK4KWin9X11Client5strutEv@Base 4:5.24.3-deepin.1.9
 _ZNK4KWin9X11Client7frameIdEv@Base 4:5.24.3-deepin.1.9
 _ZNK4KWin9X11Client7isShownEv@Base 4:5.24.3-deepin.1.9
 _ZNK4KWin9X11Client7maxSizeEv@Base 4:5.24.3-deepin.1.9
 _ZNK4KWin9X11Client7minSizeEv@Base 4:5.24.3-deepin.1.9
 _ZNK4KWin9X11Client8hasStrutEv@Base 4:5.24.3-deepin.1.9
 _ZNK4KWin9X11Client8isClientEv@Base 4:5.24.3-deepin.1.9
 _ZNK4KWin9X11Client8noBorderEv@Base 4:5.24.3-deepin.1.9
 _ZNK4KWin9X11Client8readNameEv@Base 4:5.24.3-deepin.1.9
 _ZNK4KWin9X11Client8userTimeEv@Base 4:5.24.3-deepin.1.9
 _ZNK4KWin9X11Client9basicUnitEv@Base 4:5.24.3-deepin.1.9
 _ZNK4KWin9X11Client9isMovableEv@Base 4:5.24.3-deepin.1.9
 _ZNK4KWin9X11Client9strutRectENS_9StrutAreaE@Base 4:5.24.3-deepin.1.9
 _ZNSt6vectorISt10unique_ptrIN4KWin10UdevDeviceESt14default_deleteIS2_EESaIS5_EE17_M_realloc_insertIJS5_EEEvN9__gnu_cxx17__normal_iteratorIPS5_S7_EEDpOT_@Base 4:5.24.3-deepin.1.9
 _ZNSt6vectorISt10unique_ptrIN4KWin37AbstractOpenGLContextAttributeBuilderESt14default_deleteIS2_EESaIS5_EE17_M_realloc_insertIJPNS1_26EglContextAttributeBuilderEEEEvN9__gnu_cxx17__normal_iteratorIPS5_S7_EEDpOT_@Base 4:5.24.3-deepin.1.9
 _ZNSt6vectorISt10unique_ptrIN4KWin37AbstractOpenGLContextAttributeBuilderESt14default_deleteIS2_EESaIS5_EE17_M_realloc_insertIJS5_EEEvN9__gnu_cxx17__normal_iteratorIPS5_S7_EEDpOT_@Base 4:5.24.3-deepin.1.9
 _ZNSt6vectorIiSaIiEE17_M_realloc_insertIJRiEEEvN9__gnu_cxx17__normal_iteratorIPiS1_EEDpOT_@Base 4:5.24.3-deepin.1.9
 _ZNSt6vectorIiSaIiEE17_M_realloc_insertIJiEEEvN9__gnu_cxx17__normal_iteratorIPiS1_EEDpOT_@Base 4:5.24.3-deepin.1.9
 _ZTI12QDBusContext@Base 4:5.24.3-deepin.1.9
 _ZTIF7QStringvE@Base 4:5.24.3-deepin.1.9
 _ZTIFPFvvEPKcE@Base 4:5.24.3-deepin.1.9
 _ZTIFbvE@Base 4:5.24.3-deepin.1.9
 _ZTIFdvE@Base 4:5.24.3-deepin.1.9
 _ZTIFjvE@Base 4:5.24.3-deepin.1.9
 _ZTIFvRK7QStringE@Base 4:5.24.3-deepin.1.9
 _ZTIFvbE@Base 4:5.24.3-deepin.1.9
 _ZTIFvdE@Base 4:5.24.3-deepin.1.9
 _ZTIFvjE@Base 4:5.24.3-deepin.1.9
 _ZTIMN4KWin8LibInput6DeviceEFvRK7QStringE@Base 4:5.24.3-deepin.1.9
 _ZTIMN4KWin8LibInput6DeviceEFvbE@Base 4:5.24.3-deepin.1.9
 _ZTIMN4KWin8LibInput6DeviceEFvdE@Base 4:5.24.3-deepin.1.9
 _ZTIMN4KWin8LibInput6DeviceEFvjE@Base 4:5.24.3-deepin.1.9
 _ZTIMN4KWin8LibInput6DeviceEKF7QStringvE@Base 4:5.24.3-deepin.1.9
 _ZTIMN4KWin8LibInput6DeviceEKFbvE@Base 4:5.24.3-deepin.1.9
 _ZTIMN4KWin8LibInput6DeviceEKFdvE@Base 4:5.24.3-deepin.1.9
 _ZTIMN4KWin8LibInput6DeviceEKFjvE@Base 4:5.24.3-deepin.1.9
 _ZTIN11QQmlPrivate24RegisterSingletonFunctorE@Base 4:5.24.3-deepin.1.9
 _ZTIN14KWaylandServer36LinuxDmaBufV1ClientBufferIntegration17RendererInterfaceE@Base 4:5.24.3-deepin.1.9
 _ZTIN4KWin10ActivitiesE@Base 4:5.24.3-deepin.1.9
 _ZTIN4KWin10CompositorE@Base 4:5.24.3-deepin.1.9
 _ZTIN4KWin10Decoration16DecorationBridgeE@Base 4:5.24.3-deepin.1.9
 _ZTIN4KWin10RenderLoopE@Base 4:5.24.3-deepin.1.9
 _ZTIN4KWin10ShadowItemE@Base 4:5.24.3-deepin.1.9
 _ZTIN4KWin10WindowItemE@Base 4:5.24.3-deepin.1.9
 _ZTIN4KWin11ApplicationE@Base 4:5.24.3-deepin.1.9
 _ZTIN4KWin11ColorDeviceE@Base 4:5.24.3-deepin.1.9
 _ZTIN4KWin11InputDeviceE@Base 4:5.24.3-deepin.1.9
 _ZTIN4KWin11InputMethodE@Base 4:5.24.3-deepin.1.9
 _ZTIN4KWin11SceneOpenGL11EffectFrameE@Base 4:5.24.3-deepin.1.9
 _ZTIN4KWin11SceneOpenGLE@Base 4:5.24.3-deepin.1.9
 _ZTIN4KWin11ScreenEdgesE@Base 4:5.24.3-deepin.1.9
 _ZTIN4KWin11SurfaceItemE@Base 4:5.24.3-deepin.1.9
 _ZTIN4KWin12ColorManagerE@Base 4:5.24.3-deepin.1.9
 _ZTIN4KWin12DebugConsoleE@Base 4:5.24.3-deepin.1.9
 _ZTIN4KWin12EffectLoaderE@Base 4:5.24.3-deepin.1.9
 _ZTIN4KWin12FTraceLoggerE@Base 4:5.24.3-deepin.1.9
 _ZTIN4KWin12InputBackendE@Base 4:5.24.3-deepin.1.9
 _ZTIN4KWin12VsyncMonitorE@Base 4:5.24.3-deepin.1.9
 _ZTIN4KWin13DmaBufTextureE@Base 4:5.24.3-deepin.1.9
 _ZTIN4KWin13InputEventSpyE@Base 4:5.24.3-deepin.1.9
 _ZTIN4KWin13OpenGLBackendE@Base 4:5.24.3-deepin.1.9
 _ZTIN4KWin13OutlineVisualE@Base 4:5.24.3-deepin.1.9
 _ZTIN4KWin13OverlayWindowE@Base 4:5.24.3-deepin.1.9
 _ZTIN4KWin13PluginFactoryE@Base 4:5.24.3-deepin.1.9
 _ZTIN4KWin13PluginManagerE@Base 4:5.24.3-deepin.1.9
 _ZTIN4KWin13RenderBackendE@Base 4:5.24.3-deepin.1.9
 _ZTIN4KWin13SceneQPainter6WindowE@Base 4:5.24.3-deepin.1.9
 _ZTIN4KWin13SceneQPainterE@Base 4:5.24.3-deepin.1.9
 _ZTIN4KWin13SurfacePixmapE@Base 4:5.24.3-deepin.1.9
 _ZTIN4KWin13WaylandServerE@Base 4:5.24.3-deepin.1.9
 _ZTIN4KWin13WindowItemX11E@Base 4:5.24.3-deepin.1.9
 _ZTIN4KWin13X11CompositorE@Base 4:5.24.3-deepin.1.9
 _ZTIN4KWin14AbstractClientE@Base 4:5.24.3-deepin.1.9
 _ZTIN4KWin14AbstractOutputE@Base 4:5.24.3-deepin.1.9
 _ZTIN4KWin14AbstractScriptE@Base 4:5.24.3-deepin.1.9
 _ZTIN4KWin14DecorationItemE@Base 4:5.24.3-deepin.1.9
 _ZTIN4KWin14InternalClientE@Base 4:5.24.3-deepin.1.9
 _ZTIN4KWin14ScriptedEffectE@Base 4:5.24.3-deepin.1.9
 _ZTIN4KWin14SurfaceItemX11E@Base 4:5.24.3-deepin.1.9
 _ZTIN4KWin14SurfaceTextureE@Base 4:5.24.3-deepin.1.9
 _ZTIN4KWin14VirtualDesktopE@Base 4:5.24.3-deepin.1.9
 _ZTIN4KWin14X11EventFilterE@Base 4:5.24.3-deepin.1.9
 _ZTIN4KWin15EffectFrameImplE@Base 4:5.24.3-deepin.1.9
 _ZTIN4KWin15LibinputBackendE@Base 4:5.24.3-deepin.1.9
 _ZTIN4KWin15QPainterBackendE@Base 4:5.24.3-deepin.1.9
 _ZTIN4KWin15UserActionsMenuE@Base 4:5.24.3-deepin.1.9
 _ZTIN4KWin16InputEventFilterE@Base 4:5.24.3-deepin.1.9
 _ZTIN4KWin16InputRedirectionE@Base 4:5.24.3-deepin.1.9
 _ZTIN4KWin16SurfacePixmapX11E@Base 4:5.24.3-deepin.1.9
 _ZTIN4KWin17DebugConsoleModelE@Base 4:5.24.3-deepin.1.9
 _ZTIN4KWin17GestureRecognizerE@Base 4:5.24.3-deepin.1.9
 _ZTIN4KWin17WaylandCompositorE@Base 4:5.24.3-deepin.1.9
 _ZTIN4KWin17WindowItemWaylandE@Base 4:5.24.3-deepin.1.9
 _ZTIN4KWin17XwaylandInterfaceE@Base 4:5.24.3-deepin.1.9
 _ZTIN4KWin18AbstractEglBackendE@Base 4:5.24.3-deepin.1.9
 _ZTIN4KWin18DecorationRendererE@Base 4:5.24.3-deepin.1.9
 _ZTIN4KWin18EffectsHandlerImplE@Base 4:5.24.3-deepin.1.9
 _ZTIN4KWin18InputDeviceHandlerE@Base 4:5.24.3-deepin.1.9
 _ZTIN4KWin18SurfaceItemWaylandE@Base 4:5.24.3-deepin.1.9
 _ZTIN4KWin18WindowItemInternalE@Base 4:5.24.3-deepin.1.9
 _ZTIN4KWin19ScreenLockerWatcherE@Base 4:5.24.3-deepin.1.9
 _ZTIN4KWin19SurfaceItemInternalE@Base 4:5.24.3-deepin.1.9
 _ZTIN4KWin19SurfaceItemXwaylandE@Base 4:5.24.3-deepin.1.9
 _ZTIN4KWin19VirtualKeyboardDBusE@Base 4:5.24.3-deepin.1.9
 _ZTIN4KWin20AbstractEffectLoaderE@Base 4:5.24.3-deepin.1.9
 _ZTIN4KWin20DpmsInputEventFilterE@Base 4:5.24.3-deepin.1.9
 _ZTIN4KWin20OpenGLSurfaceTextureE@Base 4:5.24.3-deepin.1.9
 _ZTIN4KWin20ScriptedEffectLoaderE@Base 4:5.24.3-deepin.1.9
 _ZTIN4KWin20SoftwareVsyncMonitorE@Base 4:5.24.3-deepin.1.9
 _ZTIN4KWin20SurfacePixmapWaylandE@Base 4:5.24.3-deepin.1.9
 _ZTIN4KWin21AbstractWaylandOutputE@Base 4:5.24.3-deepin.1.9
 _ZTIN4KWin21ModifierOnlyShortcutsE@Base 4:5.24.3-deepin.1.9
 _ZTIN4KWin21SurfacePixmapInternalE@Base 4:5.24.3-deepin.1.9
 _ZTIN4KWin21VirtualDesktopManagerE@Base 4:5.24.3-deepin.1.9
 _ZTIN4KWin22QPainterSurfaceTextureE@Base 4:5.24.3-deepin.1.9
 _ZTIN4KWin23OpenGLSurfaceTextureX11E@Base 4:5.24.3-deepin.1.9
 _ZTIN4KWin23PointerInputRedirectionE@Base 4:5.24.3-deepin.1.9
 _ZTIN4KWin24KeyboardInputRedirectionE@Base 4:5.24.3-deepin.1.9
 _ZTIN4KWin25LinuxDmaBufV1ClientBufferE@Base 4:5.24.3-deepin.1.9
 _ZTIN4KWin26ApplicationWaylandAbstractE@Base 4:5.24.3-deepin.1.9
 _ZTIN4KWin26EglContextAttributeBuilderE@Base 4:5.24.3-deepin.1.9
 _ZTIN4KWin26XdgActivationV1IntegrationE@Base 4:5.24.3-deepin.1.9
 _ZTIN4KWin27OpenGLSurfaceTextureWaylandE@Base 4:5.24.3-deepin.1.9
 _ZTIN4KWin28OpenGLSurfaceTextureInternalE@Base 4:5.24.3-deepin.1.9
 _ZTIN4KWin29BasicEGLSurfaceTextureWaylandE@Base 4:5.24.3-deepin.1.9
 _ZTIN4KWin29QPainterSurfaceTextureWaylandE@Base 4:5.24.3-deepin.1.9
 _ZTIN4KWin30BasicEGLSurfaceTextureInternalE@Base 4:5.24.3-deepin.1.9
 _ZTIN4KWin30LinuxDmaBufV1RendererInterfaceE@Base 4:5.24.3-deepin.1.9
 _ZTIN4KWin30QPainterSurfaceTextureInternalE@Base 4:5.24.3-deepin.1.9
 _ZTIN4KWin34EglOpenGLESContextAttributeBuilderE@Base 4:5.24.3-deepin.1.9
 _ZTIN4KWin37AbstractOpenGLContextAttributeBuilderE@Base 4:5.24.3-deepin.1.9
 _ZTIN4KWin3XkbE@Base 4:5.24.3-deepin.1.9
 _ZTIN4KWin4EdgeE@Base 4:5.24.3-deepin.1.9
 _ZTIN4KWin4ItemE@Base 4:5.24.3-deepin.1.9
 _ZTIN4KWin5Scene11EffectFrameE@Base 4:5.24.3-deepin.1.9
 _ZTIN4KWin5Scene6WindowE@Base 4:5.24.3-deepin.1.9
 _ZTIN4KWin5SceneE@Base 4:5.24.3-deepin.1.9
 _ZTIN4KWin6CursorE@Base 4:5.24.3-deepin.1.9
 _ZTIN4KWin6PluginE@Base 4:5.24.3-deepin.1.9
 _ZTIN4KWin6ShadowE@Base 4:5.24.3-deepin.1.9
 _ZTIN4KWin6TabBox6TabBoxE@Base 4:5.24.3-deepin.1.9
 _ZTIN4KWin7CursorsE@Base 4:5.24.3-deepin.1.9
 _ZTIN4KWin7DeletedE@Base 4:5.24.3-deepin.1.9
 _ZTIN4KWin7OptionsE@Base 4:5.24.3-deepin.1.9
 _ZTIN4KWin7ScreensE@Base 4:5.24.3-deepin.1.9
 _ZTIN4KWin7SessionE@Base 4:5.24.3-deepin.1.9
 _ZTIN4KWin8LibInput10ConnectionE@Base 4:5.24.3-deepin.1.9
 _ZTIN4KWin8LibInput6DeviceE@Base 4:5.24.3-deepin.1.9
 _ZTIN4KWin8PlatformE@Base 4:5.24.3-deepin.1.9
 _ZTIN4KWin8RuleBookE@Base 4:5.24.3-deepin.1.9
 _ZTIN4KWin8ToplevelE@Base 4:5.24.3-deepin.1.9
 _ZTIN4KWin9PlacementE@Base 4:5.24.3-deepin.1.9
 _ZTIN4KWin9ScriptingE@Base 4:5.24.3-deepin.1.9
 _ZTIN4KWin9UnmanagedE@Base 4:5.24.3-deepin.1.9
 _ZTIN4KWin9WorkspaceE@Base 4:5.24.3-deepin.1.9
 _ZTIN4KWin9X11ClientE@Base 4:5.24.3-deepin.1.9
 _ZTIPFPFvvEPKcE@Base 4:5.24.3-deepin.1.9
 _ZTISt11_Mutex_baseILN9__gnu_cxx12_Lock_policyE2EE@Base 4:5.24.3-deepin.1.9
 _ZTISt16_Sp_counted_baseILN9__gnu_cxx12_Lock_policyE2EE@Base 4:5.24.3-deepin.1.9
 _ZTS12QDBusContext@Base 4:5.24.3-deepin.1.9
 _ZTSF7QStringvE@Base 4:5.24.3-deepin.1.9
 _ZTSFPFvvEPKcE@Base 4:5.24.3-deepin.1.9
 _ZTSFbvE@Base 4:5.24.3-deepin.1.9
 _ZTSFdvE@Base 4:5.24.3-deepin.1.9
 _ZTSFjvE@Base 4:5.24.3-deepin.1.9
 _ZTSFvRK7QStringE@Base 4:5.24.3-deepin.1.9
 _ZTSFvbE@Base 4:5.24.3-deepin.1.9
 _ZTSFvdE@Base 4:5.24.3-deepin.1.9
 _ZTSFvjE@Base 4:5.24.3-deepin.1.9
 _ZTSMN4KWin8LibInput6DeviceEFvRK7QStringE@Base 4:5.24.3-deepin.1.9
 _ZTSMN4KWin8LibInput6DeviceEFvbE@Base 4:5.24.3-deepin.1.9
 _ZTSMN4KWin8LibInput6DeviceEFvdE@Base 4:5.24.3-deepin.1.9
 _ZTSMN4KWin8LibInput6DeviceEFvjE@Base 4:5.24.3-deepin.1.9
 _ZTSMN4KWin8LibInput6DeviceEKF7QStringvE@Base 4:5.24.3-deepin.1.9
 _ZTSMN4KWin8LibInput6DeviceEKFbvE@Base 4:5.24.3-deepin.1.9
 _ZTSMN4KWin8LibInput6DeviceEKFdvE@Base 4:5.24.3-deepin.1.9
 _ZTSMN4KWin8LibInput6DeviceEKFjvE@Base 4:5.24.3-deepin.1.9
 _ZTSN11QQmlPrivate24RegisterSingletonFunctorE@Base 4:5.24.3-deepin.1.9
 _ZTSN14KWaylandServer36LinuxDmaBufV1ClientBufferIntegration17RendererInterfaceE@Base 4:5.24.3-deepin.1.9
 _ZTSN4KWin10ActivitiesE@Base 4:5.24.3-deepin.1.9
 _ZTSN4KWin10CompositorE@Base 4:5.24.3-deepin.1.9
 _ZTSN4KWin10Decoration16DecorationBridgeE@Base 4:5.24.3-deepin.1.9
 _ZTSN4KWin10RenderLoopE@Base 4:5.24.3-deepin.1.9
 _ZTSN4KWin10ShadowItemE@Base 4:5.24.3-deepin.1.9
 _ZTSN4KWin10WindowItemE@Base 4:5.24.3-deepin.1.9
 _ZTSN4KWin11ApplicationE@Base 4:5.24.3-deepin.1.9
 _ZTSN4KWin11ColorDeviceE@Base 4:5.24.3-deepin.1.9
 _ZTSN4KWin11InputDeviceE@Base 4:5.24.3-deepin.1.9
 _ZTSN4KWin11InputMethodE@Base 4:5.24.3-deepin.1.9
 _ZTSN4KWin11SceneOpenGL11EffectFrameE@Base 4:5.24.3-deepin.1.9
 _ZTSN4KWin11SceneOpenGLE@Base 4:5.24.3-deepin.1.9
 _ZTSN4KWin11ScreenEdgesE@Base 4:5.24.3-deepin.1.9
 _ZTSN4KWin11SurfaceItemE@Base 4:5.24.3-deepin.1.9
 _ZTSN4KWin12ColorManagerE@Base 4:5.24.3-deepin.1.9
 _ZTSN4KWin12DebugConsoleE@Base 4:5.24.3-deepin.1.9
 _ZTSN4KWin12EffectLoaderE@Base 4:5.24.3-deepin.1.9
 _ZTSN4KWin12FTraceLoggerE@Base 4:5.24.3-deepin.1.9
 _ZTSN4KWin12InputBackendE@Base 4:5.24.3-deepin.1.9
 _ZTSN4KWin12VsyncMonitorE@Base 4:5.24.3-deepin.1.9
 _ZTSN4KWin13DmaBufTextureE@Base 4:5.24.3-deepin.1.9
 _ZTSN4KWin13InputEventSpyE@Base 4:5.24.3-deepin.1.9
 _ZTSN4KWin13OpenGLBackendE@Base 4:5.24.3-deepin.1.9
 _ZTSN4KWin13OutlineVisualE@Base 4:5.24.3-deepin.1.9
 _ZTSN4KWin13OverlayWindowE@Base 4:5.24.3-deepin.1.9
 _ZTSN4KWin13PluginFactoryE@Base 4:5.24.3-deepin.1.9
 _ZTSN4KWin13PluginManagerE@Base 4:5.24.3-deepin.1.9
 _ZTSN4KWin13RenderBackendE@Base 4:5.24.3-deepin.1.9
 _ZTSN4KWin13SceneQPainter6WindowE@Base 4:5.24.3-deepin.1.9
 _ZTSN4KWin13SceneQPainterE@Base 4:5.24.3-deepin.1.9
 _ZTSN4KWin13SurfacePixmapE@Base 4:5.24.3-deepin.1.9
 _ZTSN4KWin13WaylandServerE@Base 4:5.24.3-deepin.1.9
 _ZTSN4KWin13WindowItemX11E@Base 4:5.24.3-deepin.1.9
 _ZTSN4KWin13X11CompositorE@Base 4:5.24.3-deepin.1.9
 _ZTSN4KWin14AbstractClientE@Base 4:5.24.3-deepin.1.9
 _ZTSN4KWin14AbstractOutputE@Base 4:5.24.3-deepin.1.9
 _ZTSN4KWin14AbstractScriptE@Base 4:5.24.3-deepin.1.9
 _ZTSN4KWin14DecorationItemE@Base 4:5.24.3-deepin.1.9
 _ZTSN4KWin14InternalClientE@Base 4:5.24.3-deepin.1.9
 _ZTSN4KWin14ScriptedEffectE@Base 4:5.24.3-deepin.1.9
 _ZTSN4KWin14SurfaceItemX11E@Base 4:5.24.3-deepin.1.9
 _ZTSN4KWin14SurfaceTextureE@Base 4:5.24.3-deepin.1.9
 _ZTSN4KWin14VirtualDesktopE@Base 4:5.24.3-deepin.1.9
 _ZTSN4KWin14X11EventFilterE@Base 4:5.24.3-deepin.1.9
 _ZTSN4KWin15EffectFrameImplE@Base 4:5.24.3-deepin.1.9
 _ZTSN4KWin15LibinputBackendE@Base 4:5.24.3-deepin.1.9
 _ZTSN4KWin15QPainterBackendE@Base 4:5.24.3-deepin.1.9
 _ZTSN4KWin15UserActionsMenuE@Base 4:5.24.3-deepin.1.9
 _ZTSN4KWin16InputEventFilterE@Base 4:5.24.3-deepin.1.9
 _ZTSN4KWin16InputRedirectionE@Base 4:5.24.3-deepin.1.9
 _ZTSN4KWin16SurfacePixmapX11E@Base 4:5.24.3-deepin.1.9
 _ZTSN4KWin17DebugConsoleModelE@Base 4:5.24.3-deepin.1.9
 _ZTSN4KWin17GestureRecognizerE@Base 4:5.24.3-deepin.1.9
 _ZTSN4KWin17WaylandCompositorE@Base 4:5.24.3-deepin.1.9
 _ZTSN4KWin17WindowItemWaylandE@Base 4:5.24.3-deepin.1.9
 _ZTSN4KWin17XwaylandInterfaceE@Base 4:5.24.3-deepin.1.9
 _ZTSN4KWin18AbstractEglBackendE@Base 4:5.24.3-deepin.1.9
 _ZTSN4KWin18DecorationRendererE@Base 4:5.24.3-deepin.1.9
 _ZTSN4KWin18EffectsHandlerImplE@Base 4:5.24.3-deepin.1.9
 _ZTSN4KWin18InputDeviceHandlerE@Base 4:5.24.3-deepin.1.9
 _ZTSN4KWin18SurfaceItemWaylandE@Base 4:5.24.3-deepin.1.9
 _ZTSN4KWin18WindowItemInternalE@Base 4:5.24.3-deepin.1.9
 _ZTSN4KWin19ScreenLockerWatcherE@Base 4:5.24.3-deepin.1.9
 _ZTSN4KWin19SurfaceItemInternalE@Base 4:5.24.3-deepin.1.9
 _ZTSN4KWin19SurfaceItemXwaylandE@Base 4:5.24.3-deepin.1.9
 _ZTSN4KWin19VirtualKeyboardDBusE@Base 4:5.24.3-deepin.1.9
 _ZTSN4KWin20AbstractEffectLoaderE@Base 4:5.24.3-deepin.1.9
 _ZTSN4KWin20DpmsInputEventFilterE@Base 4:5.24.3-deepin.1.9
 _ZTSN4KWin20OpenGLSurfaceTextureE@Base 4:5.24.3-deepin.1.9
 _ZTSN4KWin20ScriptedEffectLoaderE@Base 4:5.24.3-deepin.1.9
 _ZTSN4KWin20SoftwareVsyncMonitorE@Base 4:5.24.3-deepin.1.9
 _ZTSN4KWin20SurfacePixmapWaylandE@Base 4:5.24.3-deepin.1.9
 _ZTSN4KWin21AbstractWaylandOutputE@Base 4:5.24.3-deepin.1.9
 _ZTSN4KWin21ModifierOnlyShortcutsE@Base 4:5.24.3-deepin.1.9
 _ZTSN4KWin21SurfacePixmapInternalE@Base 4:5.24.3-deepin.1.9
 _ZTSN4KWin21VirtualDesktopManagerE@Base 4:5.24.3-deepin.1.9
 _ZTSN4KWin22QPainterSurfaceTextureE@Base 4:5.24.3-deepin.1.9
 _ZTSN4KWin23OpenGLSurfaceTextureX11E@Base 4:5.24.3-deepin.1.9
 _ZTSN4KWin23PointerInputRedirectionE@Base 4:5.24.3-deepin.1.9
 _ZTSN4KWin24KeyboardInputRedirectionE@Base 4:5.24.3-deepin.1.9
 _ZTSN4KWin25LinuxDmaBufV1ClientBufferE@Base 4:5.24.3-deepin.1.9
 _ZTSN4KWin26ApplicationWaylandAbstractE@Base 4:5.24.3-deepin.1.9
 _ZTSN4KWin26EglContextAttributeBuilderE@Base 4:5.24.3-deepin.1.9
 _ZTSN4KWin26XdgActivationV1IntegrationE@Base 4:5.24.3-deepin.1.9
 _ZTSN4KWin27OpenGLSurfaceTextureWaylandE@Base 4:5.24.3-deepin.1.9
 _ZTSN4KWin28OpenGLSurfaceTextureInternalE@Base 4:5.24.3-deepin.1.9
 _ZTSN4KWin29BasicEGLSurfaceTextureWaylandE@Base 4:5.24.3-deepin.1.9
 _ZTSN4KWin29QPainterSurfaceTextureWaylandE@Base 4:5.24.3-deepin.1.9
 _ZTSN4KWin30BasicEGLSurfaceTextureInternalE@Base 4:5.24.3-deepin.1.9
 _ZTSN4KWin30LinuxDmaBufV1RendererInterfaceE@Base 4:5.24.3-deepin.1.9
 _ZTSN4KWin30QPainterSurfaceTextureInternalE@Base 4:5.24.3-deepin.1.9
 _ZTSN4KWin34EglOpenGLESContextAttributeBuilderE@Base 4:5.24.3-deepin.1.9
 _ZTSN4KWin37AbstractOpenGLContextAttributeBuilderE@Base 4:5.24.3-deepin.1.9
 _ZTSN4KWin3XkbE@Base 4:5.24.3-deepin.1.9
 _ZTSN4KWin4EdgeE@Base 4:5.24.3-deepin.1.9
 _ZTSN4KWin4ItemE@Base 4:5.24.3-deepin.1.9
 _ZTSN4KWin5Scene11EffectFrameE@Base 4:5.24.3-deepin.1.9
 _ZTSN4KWin5Scene6WindowE@Base 4:5.24.3-deepin.1.9
 _ZTSN4KWin5SceneE@Base 4:5.24.3-deepin.1.9
 _ZTSN4KWin6CursorE@Base 4:5.24.3-deepin.1.9
 _ZTSN4KWin6PluginE@Base 4:5.24.3-deepin.1.9
 _ZTSN4KWin6ShadowE@Base 4:5.24.3-deepin.1.9
 _ZTSN4KWin6TabBox6TabBoxE@Base 4:5.24.3-deepin.1.9
 _ZTSN4KWin7CursorsE@Base 4:5.24.3-deepin.1.9
 _ZTSN4KWin7DeletedE@Base 4:5.24.3-deepin.1.9
 _ZTSN4KWin7OptionsE@Base 4:5.24.3-deepin.1.9
 _ZTSN4KWin7ScreensE@Base 4:5.24.3-deepin.1.9
 _ZTSN4KWin7SessionE@Base 4:5.24.3-deepin.1.9
 _ZTSN4KWin8LibInput10ConnectionE@Base 4:5.24.3-deepin.1.9
 _ZTSN4KWin8LibInput6DeviceE@Base 4:5.24.3-deepin.1.9
 _ZTSN4KWin8PlatformE@Base 4:5.24.3-deepin.1.9
 _ZTSN4KWin8RuleBookE@Base 4:5.24.3-deepin.1.9
 _ZTSN4KWin8ToplevelE@Base 4:5.24.3-deepin.1.9
 _ZTSN4KWin9PlacementE@Base 4:5.24.3-deepin.1.9
 _ZTSN4KWin9ScriptingE@Base 4:5.24.3-deepin.1.9
 _ZTSN4KWin9UnmanagedE@Base 4:5.24.3-deepin.1.9
 _ZTSN4KWin9WorkspaceE@Base 4:5.24.3-deepin.1.9
 _ZTSN4KWin9X11ClientE@Base 4:5.24.3-deepin.1.9
 _ZTSPFPFvvEPKcE@Base 4:5.24.3-deepin.1.9
 _ZTSSt11_Mutex_baseILN9__gnu_cxx12_Lock_policyE2EE@Base 4:5.24.3-deepin.1.9
 _ZTSSt16_Sp_counted_baseILN9__gnu_cxx12_Lock_policyE2EE@Base 4:5.24.3-deepin.1.9
 _ZTSSt19_Sp_make_shared_tag@Base 4:5.24.3-deepin.1.9
 _ZTVN4KWin10ActivitiesE@Base 4:5.24.3-deepin.1.9
 _ZTVN4KWin10CompositorE@Base 4:5.24.3-deepin.1.9
 _ZTVN4KWin10Decoration16DecorationBridgeE@Base 4:5.24.3-deepin.1.9
 _ZTVN4KWin10RenderLoopE@Base 4:5.24.3-deepin.1.9
 _ZTVN4KWin10ShadowItemE@Base 4:5.24.3-deepin.1.9
 _ZTVN4KWin10WindowItemE@Base 4:5.24.3-deepin.1.9
 _ZTVN4KWin11ApplicationE@Base 4:5.24.3-deepin.1.9
 _ZTVN4KWin11ColorDeviceE@Base 4:5.24.3-deepin.1.9
 _ZTVN4KWin11InputDeviceE@Base 4:5.24.3-deepin.1.9
 _ZTVN4KWin11InputMethodE@Base 4:5.24.3-deepin.1.9
 _ZTVN4KWin11SceneOpenGL11EffectFrameE@Base 4:5.24.3-deepin.1.9
 _ZTVN4KWin11SceneOpenGLE@Base 4:5.24.3-deepin.1.9
 _ZTVN4KWin11ScreenEdgesE@Base 4:5.24.3-deepin.1.9
 _ZTVN4KWin11SurfaceItemE@Base 4:5.24.3-deepin.1.9
 _ZTVN4KWin12ColorManagerE@Base 4:5.24.3-deepin.1.9
 _ZTVN4KWin12DebugConsoleE@Base 4:5.24.3-deepin.1.9
 _ZTVN4KWin12EffectLoaderE@Base 4:5.24.3-deepin.1.9
 _ZTVN4KWin12FTraceLoggerE@Base 4:5.24.3-deepin.1.9
 _ZTVN4KWin12InputBackendE@Base 4:5.24.3-deepin.1.9
 _ZTVN4KWin12VsyncMonitorE@Base 4:5.24.3-deepin.1.9
 _ZTVN4KWin13DmaBufTextureE@Base 4:5.24.3-deepin.1.9
 _ZTVN4KWin13InputEventSpyE@Base 4:5.24.3-deepin.1.9
 _ZTVN4KWin13OpenGLBackendE@Base 4:5.24.3-deepin.1.9
 _ZTVN4KWin13OutlineVisualE@Base 4:5.24.3-deepin.1.9
 _ZTVN4KWin13OverlayWindowE@Base 4:5.24.3-deepin.1.9
 _ZTVN4KWin13PluginFactoryE@Base 4:5.24.3-deepin.1.9
 _ZTVN4KWin13PluginManagerE@Base 4:5.24.3-deepin.1.9
 _ZTVN4KWin13RenderBackendE@Base 4:5.24.3-deepin.1.9
 _ZTVN4KWin13SceneQPainter6WindowE@Base 4:5.24.3-deepin.1.9
 _ZTVN4KWin13SceneQPainterE@Base 4:5.24.3-deepin.1.9
 _ZTVN4KWin13SurfacePixmapE@Base 4:5.24.3-deepin.1.9
 _ZTVN4KWin13WaylandServerE@Base 4:5.24.3-deepin.1.9
 _ZTVN4KWin13WindowItemX11E@Base 4:5.24.3-deepin.1.9
 _ZTVN4KWin13X11CompositorE@Base 4:5.24.3-deepin.1.9
 _ZTVN4KWin14AbstractClientE@Base 4:5.24.3-deepin.1.9
 _ZTVN4KWin14AbstractOutputE@Base 4:5.24.3-deepin.1.9
 _ZTVN4KWin14AbstractScriptE@Base 4:5.24.3-deepin.1.9
 _ZTVN4KWin14DecorationItemE@Base 4:5.24.3-deepin.1.9
 _ZTVN4KWin14InternalClientE@Base 4:5.24.3-deepin.1.9
 _ZTVN4KWin14ScriptedEffectE@Base 4:5.24.3-deepin.1.9
 _ZTVN4KWin14SurfaceItemX11E@Base 4:5.24.3-deepin.1.9
 _ZTVN4KWin14SurfaceTextureE@Base 4:5.24.3-deepin.1.9
 _ZTVN4KWin14VirtualDesktopE@Base 4:5.24.3-deepin.1.9
 _ZTVN4KWin14X11EventFilterE@Base 4:5.24.3-deepin.1.9
 _ZTVN4KWin15EffectFrameImplE@Base 4:5.24.3-deepin.1.9
 _ZTVN4KWin15LibinputBackendE@Base 4:5.24.3-deepin.1.9
 _ZTVN4KWin15QPainterBackendE@Base 4:5.24.3-deepin.1.9
 _ZTVN4KWin15UserActionsMenuE@Base 4:5.24.3-deepin.1.9
 _ZTVN4KWin16InputEventFilterE@Base 4:5.24.3-deepin.1.9
 _ZTVN4KWin16InputRedirectionE@Base 4:5.24.3-deepin.1.9
 _ZTVN4KWin16SurfacePixmapX11E@Base 4:5.24.3-deepin.1.9
 _ZTVN4KWin17DebugConsoleModelE@Base 4:5.24.3-deepin.1.9
 _ZTVN4KWin17GestureRecognizerE@Base 4:5.24.3-deepin.1.9
 _ZTVN4KWin17WaylandCompositorE@Base 4:5.24.3-deepin.1.9
 _ZTVN4KWin17WindowItemWaylandE@Base 4:5.24.3-deepin.1.9
 _ZTVN4KWin17XwaylandInterfaceE@Base 4:5.24.3-deepin.1.9
 _ZTVN4KWin18AbstractEglBackendE@Base 4:5.24.3-deepin.1.9
 _ZTVN4KWin18DecorationRendererE@Base 4:5.24.3-deepin.1.9
 _ZTVN4KWin18EffectsHandlerImplE@Base 4:5.24.3-deepin.1.9
 _ZTVN4KWin18InputDeviceHandlerE@Base 4:5.24.3-deepin.1.9
 _ZTVN4KWin18SurfaceItemWaylandE@Base 4:5.24.3-deepin.1.9
 _ZTVN4KWin18WindowItemInternalE@Base 4:5.24.3-deepin.1.9
 _ZTVN4KWin19ScreenLockerWatcherE@Base 4:5.24.3-deepin.1.9
 _ZTVN4KWin19SurfaceItemInternalE@Base 4:5.24.3-deepin.1.9
 _ZTVN4KWin19SurfaceItemXwaylandE@Base 4:5.24.3-deepin.1.9
 _ZTVN4KWin19VirtualKeyboardDBusE@Base 4:5.24.3-deepin.1.9
 _ZTVN4KWin20AbstractEffectLoaderE@Base 4:5.24.3-deepin.1.9
 _ZTVN4KWin20DpmsInputEventFilterE@Base 4:5.24.3-deepin.1.9
 _ZTVN4KWin20OpenGLSurfaceTextureE@Base 4:5.24.3-deepin.1.9
 _ZTVN4KWin20ScriptedEffectLoaderE@Base 4:5.24.3-deepin.1.9
 _ZTVN4KWin20SoftwareVsyncMonitorE@Base 4:5.24.3-deepin.1.9
 _ZTVN4KWin20SurfacePixmapWaylandE@Base 4:5.24.3-deepin.1.9
 _ZTVN4KWin21AbstractWaylandOutputE@Base 4:5.24.3-deepin.1.9
 _ZTVN4KWin21ModifierOnlyShortcutsE@Base 4:5.24.3-deepin.1.9
 _ZTVN4KWin21SurfacePixmapInternalE@Base 4:5.24.3-deepin.1.9
 _ZTVN4KWin21VirtualDesktopManagerE@Base 4:5.24.3-deepin.1.9
 _ZTVN4KWin22QPainterSurfaceTextureE@Base 4:5.24.3-deepin.1.9
 _ZTVN4KWin23OpenGLSurfaceTextureX11E@Base 4:5.24.3-deepin.1.9
 _ZTVN4KWin23PointerInputRedirectionE@Base 4:5.24.3-deepin.1.9
 _ZTVN4KWin24KeyboardInputRedirectionE@Base 4:5.24.3-deepin.1.9
 _ZTVN4KWin25LinuxDmaBufV1ClientBufferE@Base 4:5.24.3-deepin.1.9
 _ZTVN4KWin26ApplicationWaylandAbstractE@Base 4:5.24.3-deepin.1.9
 _ZTVN4KWin26EglContextAttributeBuilderE@Base 4:5.24.3-deepin.1.9
 _ZTVN4KWin26XdgActivationV1IntegrationE@Base 4:5.24.3-deepin.1.9
 _ZTVN4KWin27OpenGLSurfaceTextureWaylandE@Base 4:5.24.3-deepin.1.9
 _ZTVN4KWin28OpenGLSurfaceTextureInternalE@Base 4:5.24.3-deepin.1.9
 _ZTVN4KWin29BasicEGLSurfaceTextureWaylandE@Base 4:5.24.3-deepin.1.9
 _ZTVN4KWin29QPainterSurfaceTextureWaylandE@Base 4:5.24.3-deepin.1.9
 _ZTVN4KWin30BasicEGLSurfaceTextureInternalE@Base 4:5.24.3-deepin.1.9
 _ZTVN4KWin30LinuxDmaBufV1RendererInterfaceE@Base 4:5.24.3-deepin.1.9
 _ZTVN4KWin30QPainterSurfaceTextureInternalE@Base 4:5.24.3-deepin.1.9
 _ZTVN4KWin34EglOpenGLESContextAttributeBuilderE@Base 4:5.24.3-deepin.1.9
 _ZTVN4KWin3XkbE@Base 4:5.24.3-deepin.1.9
 _ZTVN4KWin4EdgeE@Base 4:5.24.3-deepin.1.9
 _ZTVN4KWin4ItemE@Base 4:5.24.3-deepin.1.9
 _ZTVN4KWin5Scene11EffectFrameE@Base 4:5.24.3-deepin.1.9
 _ZTVN4KWin5Scene6WindowE@Base 4:5.24.3-deepin.1.9
 _ZTVN4KWin5SceneE@Base 4:5.24.3-deepin.1.9
 _ZTVN4KWin6CursorE@Base 4:5.24.3-deepin.1.9
 _ZTVN4KWin6PluginE@Base 4:5.24.3-deepin.1.9
 _ZTVN4KWin6ShadowE@Base 4:5.24.3-deepin.1.9
 _ZTVN4KWin6TabBox6TabBoxE@Base 4:5.24.3-deepin.1.9
 _ZTVN4KWin7CursorsE@Base 4:5.24.3-deepin.1.9
 _ZTVN4KWin7DeletedE@Base 4:5.24.3-deepin.1.9
 _ZTVN4KWin7OptionsE@Base 4:5.24.3-deepin.1.9
 _ZTVN4KWin7ScreensE@Base 4:5.24.3-deepin.1.9
 _ZTVN4KWin7SessionE@Base 4:5.24.3-deepin.1.9
 _ZTVN4KWin8LibInput10ConnectionE@Base 4:5.24.3-deepin.1.9
 _ZTVN4KWin8LibInput6DeviceE@Base 4:5.24.3-deepin.1.9
 _ZTVN4KWin8PlatformE@Base 4:5.24.3-deepin.1.9
 _ZTVN4KWin8RuleBookE@Base 4:5.24.3-deepin.1.9
 _ZTVN4KWin8ToplevelE@Base 4:5.24.3-deepin.1.9
 _ZTVN4KWin9PlacementE@Base 4:5.24.3-deepin.1.9
 _ZTVN4KWin9ScriptingE@Base 4:5.24.3-deepin.1.9
 _ZTVN4KWin9UnmanagedE@Base 4:5.24.3-deepin.1.9
 _ZTVN4KWin9WorkspaceE@Base 4:5.24.3-deepin.1.9
 _ZTVN4KWin9X11ClientE@Base 4:5.24.3-deepin.1.9
 _ZThn16_N4KWin12DebugConsoleD0Ev@Base 4:5.24.3-deepin.1.9
 _ZThn16_N4KWin12DebugConsoleD1Ev@Base 4:5.24.3-deepin.1.9
 _ZThn16_N4KWin15EffectFrameImpl11setGeometryERK5QRectb@Base 4:5.24.3-deepin.1.9
 _ZThn16_N4KWin15EffectFrameImpl11setIconSizeERK5QSize@Base 4:5.24.3-deepin.1.9
 _ZThn16_N4KWin15EffectFrameImpl11setPositionERK6QPoint@Base 4:5.24.3-deepin.1.9
 _ZThn16_N4KWin15EffectFrameImpl12setAlignmentE6QFlagsIN2Qt13AlignmentFlagEE@Base 4:5.24.3-deepin.1.9
 _ZThn16_N4KWin15EffectFrameImpl12setSelectionERK5QRect@Base 4:5.24.3-deepin.1.9
 _ZThn16_N4KWin15EffectFrameImpl4freeEv@Base 4:5.24.3-deepin.1.9
 _ZThn16_N4KWin15EffectFrameImpl6renderERK7QRegiondd@Base 4:5.24.3-deepin.1.9
 _ZThn16_N4KWin15EffectFrameImpl7setFontERK5QFont@Base 4:5.24.3-deepin.1.9
 _ZThn16_N4KWin15EffectFrameImpl7setIconERK5QIcon@Base 4:5.24.3-deepin.1.9
 _ZThn16_N4KWin15EffectFrameImpl7setTextERK7QString@Base 4:5.24.3-deepin.1.9
 _ZThn16_N4KWin15EffectFrameImplD0Ev@Base 4:5.24.3-deepin.1.9
 _ZThn16_N4KWin15EffectFrameImplD1Ev@Base 4:5.24.3-deepin.1.9
 _ZThn16_N4KWin21ModifierOnlyShortcuts10wheelEventEPNS_10WheelEventE@Base 4:5.24.3-deepin.1.9
 _ZThn16_N4KWin21ModifierOnlyShortcuts12pointerEventEPNS_10MouseEventE@Base 4:5.24.3-deepin.1.9
 _ZThn16_N4KWin21ModifierOnlyShortcuts8keyEventEPNS_8KeyEventE@Base 4:5.24.3-deepin.1.9
 _ZThn16_N4KWin21ModifierOnlyShortcutsD0Ev@Base 4:5.24.3-deepin.1.9
 _ZThn16_N4KWin21ModifierOnlyShortcutsD1Ev@Base 4:5.24.3-deepin.1.9
 _ZThn16_NK4KWin15EffectFrameImpl4fontEv@Base 4:5.24.3-deepin.1.9
 _ZThn16_NK4KWin15EffectFrameImpl4iconEv@Base 4:5.24.3-deepin.1.9
 _ZThn16_NK4KWin15EffectFrameImpl4textEv@Base 4:5.24.3-deepin.1.9
 _ZThn16_NK4KWin15EffectFrameImpl8geometryEv@Base 4:5.24.3-deepin.1.9
 _ZThn16_NK4KWin15EffectFrameImpl8iconSizeEv@Base 4:5.24.3-deepin.1.9
 _ZThn16_NK4KWin15EffectFrameImpl9alignmentEv@Base 4:5.24.3-deepin.1.9
 _ZZN4KWin14FTraceDurationC4IJPKc7QStringS3_EEEDpT_E9s_context@Base 4:5.24.3-deepin.1.9
 _ZZN9QMetaType17registerConverterI8QJSValue5QRectPFS2_RKS1_EEEbT1_E1f@Base 4:5.24.3-deepin.1.9
 _ZZN9QMetaType17registerConverterI8QJSValue5QSizePFS2_RKS1_EEEbT1_E1f@Base 4:5.24.3-deepin.1.9
 _ZZN9QMetaType17registerConverterI8QJSValue6QPointPFS2_RKS1_EEEbT1_E1f@Base 4:5.24.3-deepin.1.9
 _ZZNSt19_Sp_make_shared_tag5_S_tiEvE5__tag@Base 4:5.24.3-deepin.1.9
 _ZZZN10KAboutDataC4ERK7QStringS2_S2_S2_N13KAboutLicense10LicenseKeyES2_S2_S2_S2_Ed_NKUlvE_clEvE15qstring_literal@Base 4:5.24.3-deepin.1.9
 _ZZZN4KWin10Activities8nullUuidEvENKUlvE_clEvE15qstring_literal@Base 4:5.24.3-deepin.1.9
 _ZZZN4KWin6TabBox6TabBox3keyIMS1_FvvEEEvPKcT_RK12QKeySequenceENKUlvE_clEvE15qstring_literal@Base 4:5.24.3-deepin.1.9
 _ZZZN4KWin9Workspace12initShortcutINS_10CompositorEMS2_FvvEEEvRK7QStringS7_RK12QKeySequencePT_T0_RK8QVariantENKUlvE_clEvE15qstring_literal@Base 4:5.24.3-deepin.1.9
 _ZZZN4KWin9Workspace12initShortcutINS_8PlatformEMS2_FvvEEEvRK7QStringS7_RK12QKeySequencePT_T0_RK8QVariantENKUlvE_clEvE15qstring_literal@Base 4:5.24.3-deepin.1.9
 _ZZZN4KWin9Workspace12initShortcutIS0_MS0_FvvEEEvRK7QStringS6_RK12QKeySequencePT_T0_RK8QVariantENKUlvE_clEvE15qstring_literal@Base 4:5.24.3-deepin.1.9
 _ZZZN4KWin9Workspace12initShortcutIS0_St5_BindIFMS0_Fv6QFlagsINS_13QuickTileFlagEEEPS0_S4_EEEEvRK7QStringSD_RK12QKeySequencePT_T0_RK8QVariantENKUlvE_clEvE15qstring_literal@Base 4:5.24.3-deepin.1.9
 _ZZZN4KWin9Workspace12initShortcutIS0_St5_BindIFMS0_Fv6QFlagsINS_13QuickTileFlagEEEPS0_S5_EEEEvRK7QStringSD_RK12QKeySequencePT_T0_RK8QVariantENKUlvE_clEvE15qstring_literal@Base 4:5.24.3-deepin.1.9
 _ZZZN4KWin9Workspace12initShortcutIS0_St5_BindIFMS0_FvNS0_9DirectionEEPS0_S3_EEEEvRK7QStringSB_RK12QKeySequencePT_T0_RK8QVariantENKUlvE_clEvE15qstring_literal@Base 4:5.24.3-deepin.1.9
libdeepin-kwineffects.so.13 libdeepin-kwinxrenderutils13 #MINVER#
 _ZN4KWin11EffectFrame15enableCrossFadeEb@Base 4:5.24.3-deepin.1.9
 _ZN4KWin11EffectFrame20setCrossFadeProgressEd@Base 4:5.24.3-deepin.1.9
 _ZN4KWin11EffectFrame25setScreenProjectionMatrixERK10QMatrix4x4@Base 4:5.24.3-deepin.1.9
 _ZN4KWin11EffectFrameC1Ev@Base 4:5.24.3-deepin.1.9
 _ZN4KWin11EffectFrameC2Ev@Base 4:5.24.3-deepin.1.9
 _ZN4KWin11EffectFrameD0Ev@Base 4:5.24.3-deepin.1.9
 _ZN4KWin11EffectFrameD1Ev@Base 4:5.24.3-deepin.1.9
 _ZN4KWin11EffectFrameD2Ev@Base 4:5.24.3-deepin.1.9
 _ZN4KWin12DeformEffect10drawWindowEPNS_12EffectWindowEiRK7QRegionRNS_15WindowPaintDataE@Base 4:5.24.3-deepin.1.9
 _ZN4KWin12DeformEffect10unredirectEPNS_12EffectWindowE@Base 4:5.24.3-deepin.1.9
 _ZN4KWin12DeformEffect11qt_metacallEN11QMetaObject4CallEiPPv@Base 4:5.24.3-deepin.1.9
 _ZN4KWin12DeformEffect11qt_metacastEPKc@Base 4:5.24.3-deepin.1.9
 _ZN4KWin12DeformEffect16setupConnectionsEv@Base 4:5.24.3-deepin.1.9
 _ZN4KWin12DeformEffect16staticMetaObjectE@Base 4:5.24.3-deepin.1.9
 _ZN4KWin12DeformEffect18destroyConnectionsEv@Base 4:5.24.3-deepin.1.9
 _ZN4KWin12DeformEffect19handleWindowDamagedEPNS_12EffectWindowE@Base 4:5.24.3-deepin.1.9
 _ZN4KWin12DeformEffect19handleWindowDeletedEPNS_12EffectWindowE@Base 4:5.24.3-deepin.1.9
 _ZN4KWin12DeformEffect6deformEPNS_12EffectWindowEiRNS_15WindowPaintDataERNS_14WindowQuadListE@Base 4:5.24.3-deepin.1.9
 _ZN4KWin12DeformEffect8redirectEPNS_12EffectWindowE@Base 4:5.24.3-deepin.1.9
 _ZN4KWin12DeformEffect9supportedEv@Base 4:5.24.3-deepin.1.9
 _ZN4KWin12DeformEffectC1EP7QObject@Base 4:5.24.3-deepin.1.9
 _ZN4KWin12DeformEffectC2EP7QObject@Base 4:5.24.3-deepin.1.9
 _ZN4KWin12DeformEffectD0Ev@Base 4:5.24.3-deepin.1.9
 _ZN4KWin12DeformEffectD1Ev@Base 4:5.24.3-deepin.1.9
 _ZN4KWin12DeformEffectD2Ev@Base 4:5.24.3-deepin.1.9
 _ZN4KWin12EffectScreen11qt_metacallEN11QMetaObject4CallEiPPv@Base 4:5.24.3-deepin.1.9
 _ZN4KWin12EffectScreen11qt_metacastEPKc@Base 4:5.24.3-deepin.1.9
 _ZN4KWin12EffectScreen13aboutToChangeEv@Base 4:5.24.3-deepin.1.9
 _ZN4KWin12EffectScreen14aboutToTurnOffENSt6chrono8durationIlSt5ratioILl1ELl1000EEEE@Base 4:5.24.3-deepin.1.9
 _ZN4KWin12EffectScreen15geometryChangedEv@Base 4:5.24.3-deepin.1.9
 _ZN4KWin12EffectScreen16staticMetaObjectE@Base 4:5.24.3-deepin.1.9
 _ZN4KWin12EffectScreen23devicePixelRatioChangedEv@Base 4:5.24.3-deepin.1.9
 _ZN4KWin12EffectScreen6wakeUpEv@Base 4:5.24.3-deepin.1.9
 _ZN4KWin12EffectScreen7changedEv@Base 4:5.24.3-deepin.1.9
 _ZN4KWin12EffectScreenC1EP7QObject@Base 4:5.24.3-deepin.1.9
 _ZN4KWin12EffectScreenC2EP7QObject@Base 4:5.24.3-deepin.1.9
 _ZN4KWin12EffectWindow11qt_metacallEN11QMetaObject4CallEiPPv@Base 4:5.24.3-deepin.1.9
 _ZN4KWin12EffectWindow11qt_metacastEPKc@Base 4:5.24.3-deepin.1.9
 _ZN4KWin12EffectWindow12setMinimizedEb@Base 4:5.24.3-deepin.1.9
 _ZN4KWin12EffectWindow16staticMetaObjectE@Base 4:5.24.3-deepin.1.9
 _ZN4KWin12EffectWindowC1EP7QObject@Base 4:5.24.3-deepin.1.9
 _ZN4KWin12EffectWindowC2EP7QObject@Base 4:5.24.3-deepin.1.9
 _ZN4KWin12EffectWindowD0Ev@Base 4:5.24.3-deepin.1.9
 _ZN4KWin12EffectWindowD1Ev@Base 4:5.24.3-deepin.1.9
 _ZN4KWin12EffectWindowD2Ev@Base 4:5.24.3-deepin.1.9
 _ZN4KWin14EffectsHandler10tabRemovedEPNS_12EffectWindowES2_@Base 4:5.24.3-deepin.1.9
 _ZN4KWin14EffectsHandler11closeEffectEb@Base 4:5.24.3-deepin.1.9
 _ZN4KWin14EffectsHandler11qt_metacallEN11QMetaObject4CallEiPPv@Base 4:5.24.3-deepin.1.9
 _ZN4KWin14EffectsHandler11qt_metacastEPKc@Base 4:5.24.3-deepin.1.9
 _ZN4KWin14EffectsHandler11screenAddedEPNS_12EffectScreenE@Base 4:5.24.3-deepin.1.9
 _ZN4KWin14EffectsHandler11tabBoxAddedEi@Base 4:5.24.3-deepin.1.9
 _ZN4KWin14EffectsHandler11windowAddedEPNS_12EffectWindowE@Base 4:5.24.3-deepin.1.9
 _ZN4KWin14EffectsHandler11windowShownEPNS_12EffectWindowE@Base 4:5.24.3-deepin.1.9
 _ZN4KWin14EffectsHandler12mouseChangedERK6QPointS3_6QFlagsIN2Qt11MouseButtonEES7_S4_INS5_16KeyboardModifierEES9_@Base 4:5.24.3-deepin.1.9
 _ZN4KWin14EffectsHandler12startupAddedERK7QStringRK5QIcon@Base 4:5.24.3-deepin.1.9
 _ZN4KWin14EffectsHandler12tabBoxClosedEv@Base 4:5.24.3-deepin.1.9
 _ZN4KWin14EffectsHandler12windowClosedEPNS_12EffectWindowE@Base 4:5.24.3-deepin.1.9
 _ZN4KWin14EffectsHandler12windowHiddenEPNS_12EffectWindowE@Base 4:5.24.3-deepin.1.9
 _ZN4KWin14EffectsHandler13activityAddedERK7QString@Base 4:5.24.3-deepin.1.9
 _ZN4KWin14EffectsHandler13screenRemovedEPNS_12EffectScreenE@Base 4:5.24.3-deepin.1.9
 _ZN4KWin14EffectsHandler13tabBoxUpdatedEv@Base 4:5.24.3-deepin.1.9
 _ZN4KWin14EffectsHandler13windowDamagedEPNS_12EffectWindowERK7QRegion@Base 4:5.24.3-deepin.1.9
 _ZN4KWin14EffectsHandler13windowDeletedEPNS_12EffectWindowE@Base 4:5.24.3-deepin.1.9
 _ZN4KWin14EffectsHandler14desktopChangedEii@Base 4:5.24.3-deepin.1.9
 _ZN4KWin14EffectsHandler14desktopChangedEiiPNS_12EffectWindowE@Base 4:5.24.3-deepin.1.9
 _ZN4KWin14EffectsHandler14propertyNotifyEPNS_12EffectWindowEl@Base 4:5.24.3-deepin.1.9
 _ZN4KWin14EffectsHandler14startupChangedERK7QStringRK5QIcon@Base 4:5.24.3-deepin.1.9
 _ZN4KWin14EffectsHandler14startupRemovedERK7QString@Base 4:5.24.3-deepin.1.9
 _ZN4KWin14EffectsHandler14tabBoxKeyEventEP9QKeyEvent@Base 4:5.24.3-deepin.1.9
 _ZN4KWin14EffectsHandler15activityRemovedERK7QString@Base 4:5.24.3-deepin.1.9
 _ZN4KWin14EffectsHandler15windowActivatedEPNS_12EffectWindowE@Base 4:5.24.3-deepin.1.9
 _ZN4KWin14EffectsHandler15windowMinimizedEPNS_12EffectWindowE@Base 4:5.24.3-deepin.1.9
 _ZN4KWin14EffectsHandler16staticMetaObjectE@Base 4:5.24.3-deepin.1.9
 _ZN4KWin14EffectsHandler17screenAboutToLockEv@Base 4:5.24.3-deepin.1.9
 _ZN4KWin14EffectsHandler17windowDataChangedEPNS_12EffectWindowEi@Base 4:5.24.3-deepin.1.9
 _ZN4KWin14EffectsHandler17windowUnminimizedEPNS_12EffectWindowE@Base 4:5.24.3-deepin.1.9
 _ZN4KWin14EffectsHandler18cursorShapeChangedEv@Base 4:5.24.3-deepin.1.9
 _ZN4KWin14EffectsHandler19sessionStateChangedEv@Base 4:5.24.3-deepin.1.9
 _ZN4KWin14EffectsHandler20desktopChangedLegacyEii@Base 4:5.24.3-deepin.1.9
 _ZN4KWin14EffectsHandler20screenLockingChangedEb@Base 4:5.24.3-deepin.1.9
 _ZN4KWin14EffectsHandler20stackingOrderChangedEv@Base 4:5.24.3-deepin.1.9
 _ZN4KWin14EffectsHandler20windowOpacityChangedEPNS_12EffectWindowEdd@Base 4:5.24.3-deepin.1.9
 _ZN4KWin14EffectsHandler20xcbConnectionChangedEv@Base 4:5.24.3-deepin.1.9
 _ZN4KWin14EffectsHandler21numberDesktopsChangedEj@Base 4:5.24.3-deepin.1.9
 _ZN4KWin14EffectsHandler21screenEdgeApproachingENS_14ElectricBorderEdRK5QRect@Base 4:5.24.3-deepin.1.9
 _ZN4KWin14EffectsHandler21showingDesktopChangedEb@Base 4:5.24.3-deepin.1.9
 _ZN4KWin14EffectsHandler21windowModalityChangedEPNS_12EffectWindowE@Base 4:5.24.3-deepin.1.9
 _ZN4KWin14EffectsHandler22currentActivityChangedERK7QString@Base 4:5.24.3-deepin.1.9
 _ZN4KWin14EffectsHandler22desktopPresenceChangedEPNS_12EffectWindowEii@Base 4:5.24.3-deepin.1.9
 _ZN4KWin14EffectsHandler22windowKeepAboveChangedEPNS_12EffectWindowE@Base 4:5.24.3-deepin.1.9
 _ZN4KWin14EffectsHandler22windowKeepBelowChangedEPNS_12EffectWindowE@Base 4:5.24.3-deepin.1.9
 _ZN4KWin14EffectsHandler23currentTabAboutToChangeEPNS_12EffectWindowES2_@Base 4:5.24.3-deepin.1.9
 _ZN4KWin14EffectsHandler23windowFullScreenChangedEPNS_12EffectWindowE@Base 4:5.24.3-deepin.1.9
 _ZN4KWin14EffectsHandler24virtualScreenSizeChangedEv@Base 4:5.24.3-deepin.1.9
 _ZN4KWin14EffectsHandler25windowUnresponsiveChangedEPNS_12EffectWindowEb@Base 4:5.24.3-deepin.1.9
 _ZN4KWin14EffectsHandler26windowFrameGeometryChangedEPNS_12EffectWindowERK5QRect@Base 4:5.24.3-deepin.1.9
 _ZN4KWin14EffectsHandler26windowGeometryShapeChangedEPNS_12EffectWindowERK5QRect@Base 4:5.24.3-deepin.1.9
 _ZN4KWin14EffectsHandler26windowStepUserMovedResizedEPNS_12EffectWindowERK5QRect@Base 4:5.24.3-deepin.1.9
 _ZN4KWin14EffectsHandler27windowMaximizedStateChangedEPNS_12EffectWindowEbb@Base 4:5.24.3-deepin.1.9
 _ZN4KWin14EffectsHandler27windowStartUserMovedResizedEPNS_12EffectWindowE@Base 4:5.24.3-deepin.1.9
 _ZN4KWin14EffectsHandler28virtualScreenGeometryChangedEv@Base 4:5.24.3-deepin.1.9
 _ZN4KWin14EffectsHandler28windowFinishUserMovedResizedEPNS_12EffectWindowE@Base 4:5.24.3-deepin.1.9
 _ZN4KWin14EffectsHandler29activeFullScreenEffectChangedEv@Base 4:5.24.3-deepin.1.9
 _ZN4KWin14EffectsHandler29windowExpandedGeometryChangedEPNS_12EffectWindowE@Base 4:5.24.3-deepin.1.9
 _ZN4KWin14EffectsHandler32hasActiveFullScreenEffectChangedEv@Base 4:5.24.3-deepin.1.9
 _ZN4KWin14EffectsHandler8tabAddedEPNS_12EffectWindowES2_@Base 4:5.24.3-deepin.1.9
 _ZN4KWin14EffectsHandlerC1ENS_15CompositingTypeE@Base 4:5.24.3-deepin.1.9
 _ZN4KWin14EffectsHandlerC2ENS_15CompositingTypeE@Base 4:5.24.3-deepin.1.9
 _ZN4KWin14EffectsHandlerD0Ev@Base 4:5.24.3-deepin.1.9
 _ZN4KWin14EffectsHandlerD1Ev@Base 4:5.24.3-deepin.1.9
 _ZN4KWin14EffectsHandlerD2Ev@Base 4:5.24.3-deepin.1.9
 _ZN4KWin14QuickSceneView10resetDirtyEv@Base 4:5.24.3-deepin.1.9
 _ZN4KWin14QuickSceneView11qt_metacallEN11QMetaObject4CallEiPPv@Base 4:5.24.3-deepin.1.9
 _ZN4KWin14QuickSceneView11qt_metacastEPKc@Base 4:5.24.3-deepin.1.9
 _ZN4KWin14QuickSceneView11setRootItemEP10QQuickItem@Base 4:5.24.3-deepin.1.9
 _ZN4KWin14QuickSceneView15scheduleRepaintEv@Base 4:5.24.3-deepin.1.9
 _ZN4KWin14QuickSceneView16staticMetaObjectE@Base 4:5.24.3-deepin.1.9
 _ZN4KWin14QuickSceneView9markDirtyEv@Base 4:5.24.3-deepin.1.9
 _ZN4KWin14QuickSceneViewC1EPNS_16QuickSceneEffectEPNS_12EffectScreenE@Base 4:5.24.3-deepin.1.9
 _ZN4KWin14QuickSceneViewC2EPNS_16QuickSceneEffectEPNS_12EffectScreenE@Base 4:5.24.3-deepin.1.9
 _ZN4KWin14QuickSceneViewD0Ev@Base 4:5.24.3-deepin.1.9
 _ZN4KWin14QuickSceneViewD1Ev@Base 4:5.24.3-deepin.1.9
 _ZN4KWin14QuickSceneViewD2Ev@Base 4:5.24.3-deepin.1.9
 _ZN4KWin15AnimationEffect11paintWindowEPNS_12EffectWindowEi7QRegionRNS_15WindowPaintDataE@Base 4:5.24.3-deepin.1.9
 _ZN4KWin15AnimationEffect11qt_metacallEN11QMetaObject4CallEiPPv@Base 4:5.24.3-deepin.1.9
 _ZN4KWin15AnimationEffect11qt_metacastEPKc@Base 4:5.24.3-deepin.1.9
 _ZN4KWin15AnimationEffect11setMetaDataENS0_8MetaTypeEjRj@Base 4:5.24.3-deepin.1.9
 _ZN4KWin15AnimationEffect13_windowClosedEPNS_12EffectWindowE@Base 4:5.24.3-deepin.1.9
 _ZN4KWin15AnimationEffect14_windowDeletedEPNS_12EffectWindowE@Base 4:5.24.3-deepin.1.9
 _ZN4KWin15AnimationEffect14prePaintScreenERNS_18ScreenPrePaintDataENSt6chrono8durationIlSt5ratioILl1ELl1000EEEE@Base 4:5.24.3-deepin.1.9
 _ZN4KWin15AnimationEffect14prePaintWindowEPNS_12EffectWindowERNS_18WindowPrePaintDataENSt6chrono8durationIlSt5ratioILl1ELl1000EEEE@Base 4:5.24.3-deepin.1.9
 _ZN4KWin15AnimationEffect14triggerRepaintEv@Base 4:5.24.3-deepin.1.9
 _ZN4KWin15AnimationEffect15postPaintScreenEv@Base 4:5.24.3-deepin.1.9
 _ZN4KWin15AnimationEffect16staticMetaObjectE@Base 4:5.24.3-deepin.1.9
 _ZN4KWin15AnimationEffect19updateLayerRepaintsEv@Base 4:5.24.3-deepin.1.9
 _ZN4KWin15AnimationEffect25disconnectGeometryChangesEv@Base 4:5.24.3-deepin.1.9
 _ZN4KWin15AnimationEffect30_windowExpandedGeometryChangedEPNS_12EffectWindowE@Base 4:5.24.3-deepin.1.9
 _ZN4KWin15AnimationEffect4initEv@Base 4:5.24.3-deepin.1.9
 _ZN4KWin15AnimationEffect6cancelEy@Base 4:5.24.3-deepin.1.9
 _ZN4KWin15AnimationEffect7s_clockE@Base 4:5.24.3-deepin.1.9
 _ZN4KWin15AnimationEffect8completeEy@Base 4:5.24.3-deepin.1.9
 _ZN4KWin15AnimationEffect8metaDataENS0_8MetaTypeEj@Base 4:5.24.3-deepin.1.9
 _ZN4KWin15AnimationEffect8redirectEyNS0_9DirectionE6QFlagsINS0_15TerminationFlagEE@Base 4:5.24.3-deepin.1.9
 _ZN4KWin15AnimationEffect8retargetEyNS_4FPx2Ei@Base 4:5.24.3-deepin.1.9
 _ZN4KWin15AnimationEffect9p_animateEPNS_12EffectWindowENS0_9AttributeEjiNS_4FPx2ERK12QEasingCurveiS4_bbb@Base 4:5.24.3-deepin.1.9
 _ZN4KWin15AnimationEffectC1Ev@Base 4:5.24.3-deepin.1.9
 _ZN4KWin15AnimationEffectC2Ev@Base 4:5.24.3-deepin.1.9
 _ZN4KWin15AnimationEffectD0Ev@Base 4:5.24.3-deepin.1.9
 _ZN4KWin15AnimationEffectD1Ev@Base 4:5.24.3-deepin.1.9
 _ZN4KWin15AnimationEffectD2Ev@Base 4:5.24.3-deepin.1.9
 _ZN4KWin15ScreenPaintDataC1ERK10QMatrix4x4PNS_12EffectScreenE@Base 4:5.24.3-deepin.1.9
 _ZN4KWin15ScreenPaintDataC1ERKS0_@Base 4:5.24.3-deepin.1.9
 _ZN4KWin15ScreenPaintDataC1Ev@Base 4:5.24.3-deepin.1.9
 _ZN4KWin15ScreenPaintDataC2ERK10QMatrix4x4PNS_12EffectScreenE@Base 4:5.24.3-deepin.1.9
 _ZN4KWin15ScreenPaintDataC2ERKS0_@Base 4:5.24.3-deepin.1.9
 _ZN4KWin15ScreenPaintDataC2Ev@Base 4:5.24.3-deepin.1.9
 _ZN4KWin15ScreenPaintDataD0Ev@Base 4:5.24.3-deepin.1.9
 _ZN4KWin15ScreenPaintDataD1Ev@Base 4:5.24.3-deepin.1.9
 _ZN4KWin15ScreenPaintDataD2Ev@Base 4:5.24.3-deepin.1.9
 _ZN4KWin15ScreenPaintDataaSERKS0_@Base 4:5.24.3-deepin.1.9
 _ZN4KWin15ScreenPaintDatamLERK9QVector2D@Base 4:5.24.3-deepin.1.9
 _ZN4KWin15ScreenPaintDatamLERK9QVector3D@Base 4:5.24.3-deepin.1.9
 _ZN4KWin15ScreenPaintDatamLEd@Base 4:5.24.3-deepin.1.9
 _ZN4KWin15ScreenPaintDatapLERK6QPoint@Base 4:5.24.3-deepin.1.9
 _ZN4KWin15ScreenPaintDatapLERK7QPointF@Base 4:5.24.3-deepin.1.9
 _ZN4KWin15ScreenPaintDatapLERK9QVector2D@Base 4:5.24.3-deepin.1.9
 _ZN4KWin15ScreenPaintDatapLERK9QVector3D@Base 4:5.24.3-deepin.1.9
 _ZN4KWin15WindowPaintData10setOpacityEd@Base 4:5.24.3-deepin.1.9
 _ZN4KWin15WindowPaintData13setBrightnessEd@Base 4:5.24.3-deepin.1.9
 _ZN4KWin15WindowPaintData15multiplyOpacityEd@Base 4:5.24.3-deepin.1.9
 _ZN4KWin15WindowPaintData16rmodelViewMatrixEv@Base 4:5.24.3-deepin.1.9
 _ZN4KWin15WindowPaintData17rprojectionMatrixEv@Base 4:5.24.3-deepin.1.9
 _ZN4KWin15WindowPaintData18multiplyBrightnessEd@Base 4:5.24.3-deepin.1.9
 _ZN4KWin15WindowPaintData18multiplySaturationEd@Base 4:5.24.3-deepin.1.9
 _ZN4KWin15WindowPaintData18setModelViewMatrixERK10QMatrix4x4@Base 4:5.24.3-deepin.1.9
 _ZN4KWin15WindowPaintData19setProjectionMatrixERK10QMatrix4x4@Base 4:5.24.3-deepin.1.9
 _ZN4KWin15WindowPaintData20setCrossFadeProgressEd@Base 4:5.24.3-deepin.1.9
 _ZN4KWin15WindowPaintDataC1EPNS_12EffectWindowE@Base 4:5.24.3-deepin.1.9
 _ZN4KWin15WindowPaintDataC1EPNS_12EffectWindowERK10QMatrix4x4@Base 4:5.24.3-deepin.1.9
 _ZN4KWin15WindowPaintDataC1ERKS0_@Base 4:5.24.3-deepin.1.9
 _ZN4KWin15WindowPaintDataC2EPNS_12EffectWindowE@Base 4:5.24.3-deepin.1.9
 _ZN4KWin15WindowPaintDataC2EPNS_12EffectWindowERK10QMatrix4x4@Base 4:5.24.3-deepin.1.9
 _ZN4KWin15WindowPaintDataC2ERKS0_@Base 4:5.24.3-deepin.1.9
 _ZN4KWin15WindowPaintDataD0Ev@Base 4:5.24.3-deepin.1.9
 _ZN4KWin15WindowPaintDataD1Ev@Base 4:5.24.3-deepin.1.9
 _ZN4KWin15WindowPaintDataD2Ev@Base 4:5.24.3-deepin.1.9
 _ZN4KWin15WindowPaintDatamLERK9QVector2D@Base 4:5.24.3-deepin.1.9
 _ZN4KWin15WindowPaintDatamLERK9QVector3D@Base 4:5.24.3-deepin.1.9
 _ZN4KWin15WindowPaintDatamLEd@Base 4:5.24.3-deepin.1.9
 _ZN4KWin15WindowPaintDatapLERK6QPoint@Base 4:5.24.3-deepin.1.9
 _ZN4KWin15WindowPaintDatapLERK7QPointF@Base 4:5.24.3-deepin.1.9
 _ZN4KWin15WindowPaintDatapLERK9QVector2D@Base 4:5.24.3-deepin.1.9
 _ZN4KWin15WindowPaintDatapLERK9QVector3D@Base 4:5.24.3-deepin.1.9
 _ZN4KWin16EffectsHandlerEx11qt_metacallEN11QMetaObject4CallEiPPv@Base 4:5.24.3-deepin.1.9
 _ZN4KWin16EffectsHandlerEx11qt_metacastEPKc@Base 4:5.24.3-deepin.1.9
 _ZN4KWin16EffectsHandlerEx12swapSplitWinE4QSetIPNS_12EffectWindowEEii@Base 4:5.24.3-deepin.1.9
 _ZN4KWin16EffectsHandlerEx16splitEventActiveEv@Base 4:5.24.3-deepin.1.9
 _ZN4KWin16EffectsHandlerEx16staticMetaObjectE@Base 4:5.24.3-deepin.1.9
 _ZN4KWin16EffectsHandlerEx22showSplitScreenPreviewEPNS_12EffectWindowE@Base 4:5.24.3-deepin.1.9
 _ZN4KWin16EffectsHandlerEx26windowQuickTileModeChangedEPNS_12EffectWindowE@Base 4:5.24.3-deepin.1.9
 _ZN4KWin16EffectsHandlerEx28signalSplitScreenExitMaskingEv@Base 4:5.24.3-deepin.1.9
 _ZN4KWin16EffectsHandlerEx30signalSplitScreenResizeMaskingEi@Base 4:5.24.3-deepin.1.9
 _ZN4KWin16EffectsHandlerEx33signalSplitScreenStartShowMaskingE7QStringb@Base 4:5.24.3-deepin.1.9
 _ZN4KWin16EffectsHandlerExC1ENS_15CompositingTypeE@Base 4:5.24.3-deepin.1.9
 _ZN4KWin16EffectsHandlerExC2ENS_15CompositingTypeE@Base 4:5.24.3-deepin.1.9
 _ZN4KWin16EffectsHandlerExD0Ev@Base 4:5.24.3-deepin.1.9
 _ZN4KWin16EffectsHandlerExD1Ev@Base 4:5.24.3-deepin.1.9
 _ZN4KWin16EffectsHandlerExD2Ev@Base 4:5.24.3-deepin.1.9
 _ZN4KWin16QuickSceneEffect10setRunningEb@Base 4:5.24.3-deepin.1.9
 _ZN4KWin16QuickSceneEffect11eventFilterEP7QObjectP6QEvent@Base 4:5.24.3-deepin.1.9
 _ZN4KWin16QuickSceneEffect11paintScreenEiRK7QRegionRNS_15ScreenPaintDataE@Base 4:5.24.3-deepin.1.9
 _ZN4KWin16QuickSceneEffect11qt_metacallEN11QMetaObject4CallEiPPv@Base 4:5.24.3-deepin.1.9
 _ZN4KWin16QuickSceneEffect11qt_metacastEPKc@Base 4:5.24.3-deepin.1.9
 _ZN4KWin16QuickSceneEffect11touchMotionEiRK7QPointFj@Base 4:5.24.3-deepin.1.9
 _ZN4KWin16QuickSceneEffect12stopInternalEv@Base 4:5.24.3-deepin.1.9
 _ZN4KWin16QuickSceneEffect13startInternalEv@Base 4:5.24.3-deepin.1.9
 _ZN4KWin16QuickSceneEffect15postPaintScreenEv@Base 4:5.24.3-deepin.1.9
 _ZN4KWin16QuickSceneEffect16staticMetaObjectE@Base 4:5.24.3-deepin.1.9
 _ZN4KWin16QuickSceneEffect17handleScreenAddedEPNS_12EffectScreenE@Base 4:5.24.3-deepin.1.9
 _ZN4KWin16QuickSceneEffect17initialPropertiesEPNS_12EffectScreenE@Base 4:5.24.3-deepin.1.9
 _ZN4KWin16QuickSceneEffect19handleScreenRemovedEPNS_12EffectScreenE@Base 4:5.24.3-deepin.1.9
 _ZN4KWin16QuickSceneEffect20grabbedKeyboardEventEP9QKeyEvent@Base 4:5.24.3-deepin.1.9
 _ZN4KWin16QuickSceneEffect21windowInputMouseEventEP6QEvent@Base 4:5.24.3-deepin.1.9
 _ZN4KWin16QuickSceneEffect7touchUpEij@Base 4:5.24.3-deepin.1.9
 _ZN4KWin16QuickSceneEffect9addScreenEPNS_12EffectScreenE@Base 4:5.24.3-deepin.1.9
 _ZN4KWin16QuickSceneEffect9setSourceERK4QUrl@Base 4:5.24.3-deepin.1.9
 _ZN4KWin16QuickSceneEffect9supportedEv@Base 4:5.24.3-deepin.1.9
 _ZN4KWin16QuickSceneEffect9touchDownEiRK7QPointFj@Base 4:5.24.3-deepin.1.9
 _ZN4KWin16QuickSceneEffectC1EP7QObject@Base 4:5.24.3-deepin.1.9
 _ZN4KWin16QuickSceneEffectC2EP7QObject@Base 4:5.24.3-deepin.1.9
 _ZN4KWin16QuickSceneEffectD0Ev@Base 4:5.24.3-deepin.1.9
 _ZN4KWin16QuickSceneEffectD1Ev@Base 4:5.24.3-deepin.1.9
 _ZN4KWin16QuickSceneEffectD2Ev@Base 4:5.24.3-deepin.1.9
 _ZN4KWin16staticMetaObjectE@Base 4:5.24.3-deepin.1.9
 _ZN4KWin17EffectWindowGroupD0Ev@Base 4:5.24.3-deepin.1.9
 _ZN4KWin17EffectWindowGroupD1Ev@Base 4:5.24.3-deepin.1.9
 _ZN4KWin17EffectWindowGroupD2Ev@Base 4:5.24.3-deepin.1.9
 _ZN4KWin18OffscreenQuickView10setVisibleEb@Base 4:5.24.3-deepin.1.9
 _ZN4KWin18OffscreenQuickView11qt_metacallEN11QMetaObject4CallEiPPv@Base 4:5.24.3-deepin.1.9
 _ZN4KWin18OffscreenQuickView11qt_metacastEPKc@Base 4:5.24.3-deepin.1.9
 _ZN4KWin18OffscreenQuickView11setGeometryERK5QRect@Base 4:5.24.3-deepin.1.9
 _ZN4KWin18OffscreenQuickView12sceneChangedEv@Base 4:5.24.3-deepin.1.9
 _ZN4KWin18OffscreenQuickView13repaintNeededEv@Base 4:5.24.3-deepin.1.9
 _ZN4KWin18OffscreenQuickView14forwardTouchUpEij@Base 4:5.24.3-deepin.1.9
 _ZN4KWin18OffscreenQuickView15bufferAsTextureEv@Base 4:5.24.3-deepin.1.9
 _ZN4KWin18OffscreenQuickView15forwardKeyEventEP9QKeyEvent@Base 4:5.24.3-deepin.1.9
 _ZN4KWin18OffscreenQuickView15geometryChangedERK5QRectS3_@Base 4:5.24.3-deepin.1.9
 _ZN4KWin18OffscreenQuickView15renderRequestedEv@Base 4:5.24.3-deepin.1.9
 _ZN4KWin18OffscreenQuickView16forwardTouchDownEiRK7QPointFj@Base 4:5.24.3-deepin.1.9
 _ZN4KWin18OffscreenQuickView16staticMetaObjectE@Base 4:5.24.3-deepin.1.9
 _ZN4KWin18OffscreenQuickView17forwardMouseEventEP6QEvent@Base 4:5.24.3-deepin.1.9
 _ZN4KWin18OffscreenQuickView18forwardTouchMotionEiRK7QPointFj@Base 4:5.24.3-deepin.1.9
 _ZN4KWin18OffscreenQuickView18handleSceneChangedEv@Base 4:5.24.3-deepin.1.9
 _ZN4KWin18OffscreenQuickView19setAutomaticRepaintEb@Base 4:5.24.3-deepin.1.9
 _ZN4KWin18OffscreenQuickView21handleRenderRequestedEv@Base 4:5.24.3-deepin.1.9
 _ZN4KWin18OffscreenQuickView4hideEv@Base 4:5.24.3-deepin.1.9
 _ZN4KWin18OffscreenQuickView4showEv@Base 4:5.24.3-deepin.1.9
 _ZN4KWin18OffscreenQuickView6updateEv@Base 4:5.24.3-deepin.1.9
 _ZN4KWin18OffscreenQuickViewC1EP7QObject@Base 4:5.24.3-deepin.1.9
 _ZN4KWin18OffscreenQuickViewC1EP7QObjectNS0_10ExportModeE@Base 4:5.24.3-deepin.1.9
 _ZN4KWin18OffscreenQuickViewC1EP7QObjectP7QWindow@Base 4:5.24.3-deepin.1.9
 _ZN4KWin18OffscreenQuickViewC1EP7QObjectP7QWindowNS0_10ExportModeE@Base 4:5.24.3-deepin.1.9
 _ZN4KWin18OffscreenQuickViewC2EP7QObject@Base 4:5.24.3-deepin.1.9
 _ZN4KWin18OffscreenQuickViewC2EP7QObjectNS0_10ExportModeE@Base 4:5.24.3-deepin.1.9
 _ZN4KWin18OffscreenQuickViewC2EP7QObjectP7QWindow@Base 4:5.24.3-deepin.1.9
 _ZN4KWin18OffscreenQuickViewC2EP7QObjectP7QWindowNS0_10ExportModeE@Base 4:5.24.3-deepin.1.9
 _ZN4KWin18OffscreenQuickViewD0Ev@Base 4:5.24.3-deepin.1.9
 _ZN4KWin18OffscreenQuickViewD1Ev@Base 4:5.24.3-deepin.1.9
 _ZN4KWin18OffscreenQuickViewD2Ev@Base 4:5.24.3-deepin.1.9
 _ZN4KWin18WindowPrePaintData14setTransformedEv@Base 4:5.24.3-deepin.1.9
 _ZN4KWin18WindowPrePaintData14setTranslucentEv@Base 4:5.24.3-deepin.1.9
 _ZN4KWin19EffectPluginFactory11qt_metacallEN11QMetaObject4CallEiPPv@Base 4:5.24.3-deepin.1.9
 _ZN4KWin19EffectPluginFactory11qt_metacastEPKc@Base 4:5.24.3-deepin.1.9
 _ZN4KWin19EffectPluginFactory16staticMetaObjectE@Base 4:5.24.3-deepin.1.9
 _ZN4KWin19EffectPluginFactoryC1Ev@Base 4:5.24.3-deepin.1.9
 _ZN4KWin19EffectPluginFactoryC2Ev@Base 4:5.24.3-deepin.1.9
 _ZN4KWin19EffectPluginFactoryD0Ev@Base 4:5.24.3-deepin.1.9
 _ZN4KWin19EffectPluginFactoryD1Ev@Base 4:5.24.3-deepin.1.9
 _ZN4KWin19EffectPluginFactoryD2Ev@Base 4:5.24.3-deepin.1.9
 _ZN4KWin19OffscreenQuickScene9setSourceERK4QUrl@Base 4:5.24.3-deepin.1.9
 _ZN4KWin19OffscreenQuickSceneC1EP7QObject@Base 4:5.24.3-deepin.1.9
 _ZN4KWin19OffscreenQuickSceneC1EP7QObjectNS_18OffscreenQuickView10ExportModeE@Base 4:5.24.3-deepin.1.9
 _ZN4KWin19OffscreenQuickSceneC1EP7QObjectP7QWindow@Base 4:5.24.3-deepin.1.9
 _ZN4KWin19OffscreenQuickSceneC1EP7QObjectP7QWindowNS_18OffscreenQuickView10ExportModeE@Base 4:5.24.3-deepin.1.9
 _ZN4KWin19OffscreenQuickSceneC2EP7QObject@Base 4:5.24.3-deepin.1.9
 _ZN4KWin19OffscreenQuickSceneC2EP7QObjectNS_18OffscreenQuickView10ExportModeE@Base 4:5.24.3-deepin.1.9
 _ZN4KWin19OffscreenQuickSceneC2EP7QObjectP7QWindow@Base 4:5.24.3-deepin.1.9
 _ZN4KWin19OffscreenQuickSceneC2EP7QObjectP7QWindowNS_18OffscreenQuickView10ExportModeE@Base 4:5.24.3-deepin.1.9
 _ZN4KWin19OffscreenQuickSceneD0Ev@Base 4:5.24.3-deepin.1.9
 _ZN4KWin19OffscreenQuickSceneD1Ev@Base 4:5.24.3-deepin.1.9
 _ZN4KWin19OffscreenQuickSceneD2Ev@Base 4:5.24.3-deepin.1.9
 _ZN4KWin19WindowMotionManager10moveWindowEPNS_12EffectWindowE6QPointdd@Base 4:5.24.3-deepin.1.9
 _ZN4KWin19WindowMotionManager11unmanageAllEv@Base 4:5.24.3-deepin.1.9
 _ZN4KWin19WindowMotionManager12isWindowFillEPNS_12EffectWindowE@Base 4:5.24.3-deepin.1.9
 _ZN4KWin19WindowMotionManager13setWindowFillEPNS_12EffectWindowEb5QRect@Base 4:5.24.3-deepin.1.9
 _ZN4KWin19WindowMotionManager15resetWindowFillEPNS_12EffectWindowE@Base 4:5.24.3-deepin.1.9
 _ZN4KWin19WindowMotionManager17getWindowFillRectEPNS_12EffectWindowE@Base 4:5.24.3-deepin.1.9
 _ZN4KWin19WindowMotionManager22setTransformedGeometryEPNS_12EffectWindowERK6QRectF@Base 4:5.24.3-deepin.1.9
 _ZN4KWin19WindowMotionManager5applyEPNS_12EffectWindowERNS_15WindowPaintDataE@Base 4:5.24.3-deepin.1.9
 _ZN4KWin19WindowMotionManager5resetEPNS_12EffectWindowE@Base 4:5.24.3-deepin.1.9
 _ZN4KWin19WindowMotionManager5resetEv@Base 4:5.24.3-deepin.1.9
 _ZN4KWin19WindowMotionManager6manageEPNS_12EffectWindowE@Base 4:5.24.3-deepin.1.9
 _ZN4KWin19WindowMotionManager8unmanageEPNS_12EffectWindowE@Base 4:5.24.3-deepin.1.9
 _ZN4KWin19WindowMotionManager9calculateEi@Base 4:5.24.3-deepin.1.9
 _ZN4KWin19WindowMotionManagerC1Eb@Base 4:5.24.3-deepin.1.9
 _ZN4KWin19WindowMotionManagerC2Eb@Base 4:5.24.3-deepin.1.9
 _ZN4KWin19WindowMotionManagerD1Ev@Base 4:5.24.3-deepin.1.9
 _ZN4KWin19WindowMotionManagerD2Ev@Base 4:5.24.3-deepin.1.9
 _ZN4KWin6Effect10drawWindowEPNS_12EffectWindowEiRK7QRegionRNS_15WindowPaintDataE@Base 4:5.24.3-deepin.1.9
 _ZN4KWin6Effect11paintScreenEiRK7QRegionRNS_15ScreenPaintDataE@Base 4:5.24.3-deepin.1.9
 _ZN4KWin6Effect11paintWindowEPNS_12EffectWindowEi7QRegionRNS_15WindowPaintDataE@Base 4:5.24.3-deepin.1.9
 _ZN4KWin6Effect11qt_metacallEN11QMetaObject4CallEiPPv@Base 4:5.24.3-deepin.1.9
 _ZN4KWin6Effect11qt_metacastEPKc@Base 4:5.24.3-deepin.1.9
 _ZN4KWin6Effect11reconfigureE6QFlagsINS0_15ReconfigureFlagEE@Base 4:5.24.3-deepin.1.9
 _ZN4KWin6Effect11touchMotionEiRK7QPointFj@Base 4:5.24.3-deepin.1.9
 _ZN4KWin6Effect13animationTimeERK12KConfigGroupRK7QStringi@Base 4:5.24.3-deepin.1.9
 _ZN4KWin6Effect13animationTimeEi@Base 4:5.24.3-deepin.1.9
 _ZN4KWin6Effect14prePaintScreenERNS_18ScreenPrePaintDataENSt6chrono8durationIlSt5ratioILl1ELl1000EEEE@Base 4:5.24.3-deepin.1.9
 _ZN4KWin6Effect14prePaintWindowEPNS_12EffectWindowERNS_18WindowPrePaintDataENSt6chrono8durationIlSt5ratioILl1ELl1000EEEE@Base 4:5.24.3-deepin.1.9
 _ZN4KWin6Effect15borderActivatedENS_14ElectricBorderE@Base 4:5.24.3-deepin.1.9
 _ZN4KWin6Effect15postPaintScreenEv@Base 4:5.24.3-deepin.1.9
 _ZN4KWin6Effect15postPaintWindowEPNS_12EffectWindowE@Base 4:5.24.3-deepin.1.9
 _ZN4KWin6Effect16paintEffectFrameEPNS_11EffectFrameERK7QRegiondd@Base 4:5.24.3-deepin.1.9
 _ZN4KWin6Effect16staticMetaObjectE@Base 4:5.24.3-deepin.1.9
 _ZN4KWin6Effect20grabbedKeyboardEventEP9QKeyEvent@Base 4:5.24.3-deepin.1.9
 _ZN4KWin6Effect21windowInputMouseEventEP6QEvent@Base 4:5.24.3-deepin.1.9
 _ZN4KWin6Effect26setPositionTransformationsERNS_15WindowPaintDataER5QRectPNS_12EffectWindowERKS3_N2Qt15AspectRatioModeE@Base 4:5.24.3-deepin.1.9
 _ZN4KWin6Effect5proxyEv@Base 4:5.24.3-deepin.1.9
 _ZN4KWin6Effect7performENS0_7FeatureERK5QListI8QVariantE@Base 4:5.24.3-deepin.1.9
 _ZN4KWin6Effect7touchUpEij@Base 4:5.24.3-deepin.1.9
 _ZN4KWin6Effect8providesENS0_7FeatureE@Base 4:5.24.3-deepin.1.9
 _ZN4KWin6Effect9cursorPosEv@Base 4:5.24.3-deepin.1.9
 _ZN4KWin6Effect9touchDownEiRK7QPointFj@Base 4:5.24.3-deepin.1.9
 _ZN4KWin6EffectC1EP7QObject@Base 4:5.24.3-deepin.1.9
 _ZN4KWin6EffectC2EP7QObject@Base 4:5.24.3-deepin.1.9
 _ZN4KWin6EffectD0Ev@Base 4:5.24.3-deepin.1.9
 _ZN4KWin6EffectD1Ev@Base 4:5.24.3-deepin.1.9
 _ZN4KWin6EffectD2Ev@Base 4:5.24.3-deepin.1.9
 _ZN4KWin6MotionI7QPointFE9calculateEi@Base 4:5.24.3-deepin.1.9
 _ZN4KWin7AniDataC1ENS_15AnimationEffect9AttributeEiRKNS_4FPx2EiS5_b14QSharedPointerINS_20FullScreenEffectLockEEbS6_INS_24PreviousWindowPixmapLockEE@Base 4:5.24.3-deepin.1.9
 _ZN4KWin7AniDataC1Ev@Base 4:5.24.3-deepin.1.9
 _ZN4KWin7AniDataC2ENS_15AnimationEffect9AttributeEiRKNS_4FPx2EiS5_b14QSharedPointerINS_20FullScreenEffectLockEEbS6_INS_24PreviousWindowPixmapLockEE@Base 4:5.24.3-deepin.1.9
 _ZN4KWin7AniDataC2Ev@Base 4:5.24.3-deepin.1.9
 _ZN4KWin7effectsE@Base 4:5.24.3-deepin.1.9
 _ZN4KWin8Motion1DC1ERKS0_@Base 4:5.24.3-deepin.1.9
 _ZN4KWin8Motion1DC1Eddd@Base 4:5.24.3-deepin.1.9
 _ZN4KWin8Motion1DC2ERKS0_@Base 4:5.24.3-deepin.1.9
 _ZN4KWin8Motion1DC2Eddd@Base 4:5.24.3-deepin.1.9
 _ZN4KWin8Motion1DD1Ev@Base 4:5.24.3-deepin.1.9
 _ZN4KWin8Motion1DD2Ev@Base 4:5.24.3-deepin.1.9
 _ZN4KWin8Motion2DC1E7QPointFdd@Base 4:5.24.3-deepin.1.9
 _ZN4KWin8Motion2DC1ERKS0_@Base 4:5.24.3-deepin.1.9
 _ZN4KWin8Motion2DC2E7QPointFdd@Base 4:5.24.3-deepin.1.9
 _ZN4KWin8Motion2DC2ERKS0_@Base 4:5.24.3-deepin.1.9
 _ZN4KWin8Motion2DD1Ev@Base 4:5.24.3-deepin.1.9
 _ZN4KWin8Motion2DD2Ev@Base 4:5.24.3-deepin.1.9
 _ZN4KWin8Motion4DC1E5QRectdd@Base 4:5.24.3-deepin.1.9
 _ZN4KWin8Motion4DC1ERKS0_@Base 4:5.24.3-deepin.1.9
 _ZN4KWin8Motion4DC2E5QRectdd@Base 4:5.24.3-deepin.1.9
 _ZN4KWin8Motion4DC2ERKS0_@Base 4:5.24.3-deepin.1.9
 _ZN4KWin8Motion4DD1Ev@Base 4:5.24.3-deepin.1.9
 _ZN4KWin8Motion4DD2Ev@Base 4:5.24.3-deepin.1.9
 _ZN4KWin8TimeLine10setElapsedENSt6chrono8durationIlSt5ratioILl1ELl1000EEEE@Base 4:5.24.3-deepin.1.9
 _ZN4KWin8TimeLine11setDurationENSt6chrono8durationIlSt5ratioILl1ELl1000EEEE@Base 4:5.24.3-deepin.1.9
 _ZN4KWin8TimeLine12setDirectionENS0_9DirectionE@Base 4:5.24.3-deepin.1.9
 _ZN4KWin8TimeLine14setEasingCurveEN12QEasingCurve4TypeE@Base 4:5.24.3-deepin.1.9
 _ZN4KWin8TimeLine14setEasingCurveERK12QEasingCurve@Base 4:5.24.3-deepin.1.9
 _ZN4KWin8TimeLine15toggleDirectionEv@Base 4:5.24.3-deepin.1.9
 _ZN4KWin8TimeLine21setSourceRedirectModeENS0_12RedirectModeE@Base 4:5.24.3-deepin.1.9
 _ZN4KWin8TimeLine21setTargetRedirectModeENS0_12RedirectModeE@Base 4:5.24.3-deepin.1.9
 _ZN4KWin8TimeLine5resetEv@Base 4:5.24.3-deepin.1.9
 _ZN4KWin8TimeLine6updateENSt6chrono8durationIlSt5ratioILl1ELl1000EEEE@Base 4:5.24.3-deepin.1.9
 _ZN4KWin8TimeLineC1ENSt6chrono8durationIlSt5ratioILl1ELl1000EEEENS0_9DirectionE@Base 4:5.24.3-deepin.1.9
 _ZN4KWin8TimeLineC1ERKS0_@Base 4:5.24.3-deepin.1.9
 _ZN4KWin8TimeLineC2ENSt6chrono8durationIlSt5ratioILl1ELl1000EEEENS0_9DirectionE@Base 4:5.24.3-deepin.1.9
 _ZN4KWin8TimeLineC2ERKS0_@Base 4:5.24.3-deepin.1.9
 _ZN4KWin8TimeLineD1Ev@Base 4:5.24.3-deepin.1.9
 _ZN4KWin8TimeLineD2Ev@Base 4:5.24.3-deepin.1.9
 _ZN4KWin8TimeLineaSERKS0_@Base 4:5.24.3-deepin.1.9
 _ZN4KWin9PaintData15setRotationAxisEN2Qt4AxisE@Base 4:5.24.3-deepin.1.9
 _ZN4KWin9PaintData15setRotationAxisERK9QVector3D@Base 4:5.24.3-deepin.1.9
 _ZN4KWin9PaintData15setXTranslationEd@Base 4:5.24.3-deepin.1.9
 _ZN4KWin9PaintData15setYTranslationEd@Base 4:5.24.3-deepin.1.9
 _ZN4KWin9PaintData15setZTranslationEd@Base 4:5.24.3-deepin.1.9
 _ZN4KWin9PaintData16setRotationAngleEd@Base 4:5.24.3-deepin.1.9
 _ZN4KWin9PaintData17setRotationOriginERK9QVector3D@Base 4:5.24.3-deepin.1.9
 _ZN4KWin9PaintData8setScaleERK9QVector2D@Base 4:5.24.3-deepin.1.9
 _ZN4KWin9PaintData8setScaleERK9QVector3D@Base 4:5.24.3-deepin.1.9
 _ZN4KWin9PaintData9setXScaleEd@Base 4:5.24.3-deepin.1.9
 _ZN4KWin9PaintData9setYScaleEd@Base 4:5.24.3-deepin.1.9
 _ZN4KWin9PaintData9setZScaleEd@Base 4:5.24.3-deepin.1.9
 _ZN4KWin9PaintData9translateERK9QVector3D@Base 4:5.24.3-deepin.1.9
 _ZN4KWin9PaintData9translateEddd@Base 4:5.24.3-deepin.1.9
 _ZN4KWin9PaintDataC1Ev@Base 4:5.24.3-deepin.1.9
 _ZN4KWin9PaintDataC2Ev@Base 4:5.24.3-deepin.1.9
 _ZN4KWin9PaintDataD0Ev@Base 4:5.24.3-deepin.1.9
 _ZN4KWin9PaintDataD1Ev@Base 4:5.24.3-deepin.1.9
 _ZN4KWin9PaintDataD2Ev@Base 4:5.24.3-deepin.1.9
 _ZN4KWin9effectsExE@Base 4:5.24.3-deepin.1.9
 _ZNK4KWin10WindowQuad11makeSubQuadEdddd@Base 4:5.24.3-deepin.1.9
 _ZNK4KWin11EffectFrame11isCrossFadeEv@Base 4:5.24.3-deepin.1.9
 _ZNK4KWin11EffectFrame17crossFadeProgressEv@Base 4:5.24.3-deepin.1.9
 _ZNK4KWin11EffectFrame22screenProjectionMatrixEv@Base 4:5.24.3-deepin.1.9
 _ZNK4KWin12DeformEffect10metaObjectEv@Base 4:5.24.3-deepin.1.9
 _ZNK4KWin12EffectScreen10metaObjectEv@Base 4:5.24.3-deepin.1.9
 _ZNK4KWin12EffectWindow10metaObjectEv@Base 4:5.24.3-deepin.1.9
 _ZNK4KWin12EffectWindow11isOnDesktopEi@Base 4:5.24.3-deepin.1.9
 _ZNK4KWin12EffectWindow12isOnActivityERK7QString@Base 4:5.24.3-deepin.1.9
 _ZNK4KWin12EffectWindow13hasDecorationEv@Base 4:5.24.3-deepin.1.9
 _ZNK4KWin12EffectWindow15isOnAllDesktopsEv@Base 4:5.24.3-deepin.1.9
 _ZNK4KWin12EffectWindow17isOnAllActivitiesEv@Base 4:5.24.3-deepin.1.9
 _ZNK4KWin12EffectWindow18isOnCurrentDesktopEv@Base 4:5.24.3-deepin.1.9
 _ZNK4KWin12EffectWindow19isOnCurrentActivityEv@Base 4:5.24.3-deepin.1.9
 _ZNK4KWin12EffectWindow9isVisibleEv@Base 4:5.24.3-deepin.1.9
 _ZNK4KWin14EffectsHandler10metaObjectEv@Base 4:5.24.3-deepin.1.9
 _ZNK4KWin14EffectsHandler15compositingTypeEv@Base 4:5.24.3-deepin.1.9
 _ZNK4KWin14EffectsHandler19isOpenGLCompositingEv@Base 4:5.24.3-deepin.1.9
 _ZNK4KWin14QuickSceneView10metaObjectEv@Base 4:5.24.3-deepin.1.9
 _ZNK4KWin14QuickSceneView6effectEv@Base 4:5.24.3-deepin.1.9
 _ZNK4KWin14QuickSceneView6screenEv@Base 4:5.24.3-deepin.1.9
 _ZNK4KWin14QuickSceneView7isDirtyEv@Base 4:5.24.3-deepin.1.9
 _ZNK4KWin14QuickSceneView8rootItemEv@Base 4:5.24.3-deepin.1.9
 _ZNK4KWin14WindowQuadList10makeArraysEPPfS2_RK6QSizeFb@Base 4:5.24.3-deepin.1.9
 _ZNK4KWin14WindowQuadList15makeRegularGridEii@Base 4:5.24.3-deepin.1.9
 _ZNK4KWin14WindowQuadList21makeInterleavedArraysEjPNS_10GLVertex2DERK10QMatrix4x4@Base 4:5.24.3-deepin.1.9
 _ZNK4KWin14WindowQuadList8makeGridEi@Base 4:5.24.3-deepin.1.9
 _ZNK4KWin14WindowQuadList8splitAtXEd@Base 4:5.24.3-deepin.1.9
 _ZNK4KWin14WindowQuadList8splitAtYEd@Base 4:5.24.3-deepin.1.9
 _ZNK4KWin15AnimationEffect10metaObjectEv@Base 4:5.24.3-deepin.1.9
 _ZNK4KWin15AnimationEffect12interpolatedERKNS_7AniDataEi@Base 4:5.24.3-deepin.1.9
 _ZNK4KWin15AnimationEffect5debugERK7QString@Base 4:5.24.3-deepin.1.9
 _ZNK4KWin15AnimationEffect5stateEv@Base 4:5.24.3-deepin.1.9
 _ZNK4KWin15AnimationEffect8clipRectERK5QRectRKNS_7AniDataE@Base 4:5.24.3-deepin.1.9
 _ZNK4KWin15AnimationEffect8isActiveEv@Base 4:5.24.3-deepin.1.9
 _ZNK4KWin15AnimationEffect8progressERKNS_7AniDataE@Base 4:5.24.3-deepin.1.9
 _ZNK4KWin15AnimationEffect8validateENS0_9AttributeERjPNS_4FPx2ES4_PKNS_12EffectWindowE@Base 4:5.24.3-deepin.1.9
 _ZNK4KWin15ScreenPaintData16projectionMatrixEv@Base 4:5.24.3-deepin.1.9
 _ZNK4KWin15ScreenPaintData6screenEv@Base 4:5.24.3-deepin.1.9
 _ZNK4KWin15WindowPaintData10brightnessEv@Base 4:5.24.3-deepin.1.9
 _ZNK4KWin15WindowPaintData10saturationEv@Base 4:5.24.3-deepin.1.9
 _ZNK4KWin15WindowPaintData13setSaturationEd@Base 4:5.24.3-deepin.1.9
 _ZNK4KWin15WindowPaintData15modelViewMatrixEv@Base 4:5.24.3-deepin.1.9
 _ZNK4KWin15WindowPaintData16projectionMatrixEv@Base 4:5.24.3-deepin.1.9
 _ZNK4KWin15WindowPaintData17crossFadeProgressEv@Base 4:5.24.3-deepin.1.9
 _ZNK4KWin15WindowPaintData22screenProjectionMatrixEv@Base 4:5.24.3-deepin.1.9
 _ZNK4KWin15WindowPaintData6screenEv@Base 4:5.24.3-deepin.1.9
 _ZNK4KWin15WindowPaintData7opacityEv@Base 4:5.24.3-deepin.1.9
 _ZNK4KWin15WindowPaintData9setScreenEi@Base 4:5.24.3-deepin.1.9
 _ZNK4KWin16EffectsHandlerEx10metaObjectEv@Base 4:5.24.3-deepin.1.9
 _ZNK4KWin16QuickSceneEffect10metaObjectEv@Base 4:5.24.3-deepin.1.9
 _ZNK4KWin16QuickSceneEffect5viewsEv@Base 4:5.24.3-deepin.1.9
 _ZNK4KWin16QuickSceneEffect6sourceEv@Base 4:5.24.3-deepin.1.9
 _ZNK4KWin16QuickSceneEffect6viewAtERK6QPoint@Base 4:5.24.3-deepin.1.9
 _ZNK4KWin16QuickSceneEffect8isActiveEv@Base 4:5.24.3-deepin.1.9
 _ZNK4KWin16QuickSceneEffect9isRunningEv@Base 4:5.24.3-deepin.1.9
 _ZNK4KWin18OffscreenQuickView10metaObjectEv@Base 4:5.24.3-deepin.1.9
 _ZNK4KWin18OffscreenQuickView11contentItemEv@Base 4:5.24.3-deepin.1.9
 _ZNK4KWin18OffscreenQuickView13bufferAsImageEv@Base 4:5.24.3-deepin.1.9
 _ZNK4KWin18OffscreenQuickView16automaticRepaintEv@Base 4:5.24.3-deepin.1.9
 _ZNK4KWin18OffscreenQuickView4sizeEv@Base 4:5.24.3-deepin.1.9
 _ZNK4KWin18OffscreenQuickView8geometryEv@Base 4:5.24.3-deepin.1.9
 _ZNK4KWin18OffscreenQuickView9isVisibleEv@Base 4:5.24.3-deepin.1.9
 _ZNK4KWin19EffectPluginFactory10metaObjectEv@Base 4:5.24.3-deepin.1.9
 _ZNK4KWin19EffectPluginFactory11isSupportedEv@Base 4:5.24.3-deepin.1.9
 _ZNK4KWin19EffectPluginFactory16enabledByDefaultEv@Base 4:5.24.3-deepin.1.9
 _ZNK4KWin19OffscreenQuickScene11rootContextEv@Base 4:5.24.3-deepin.1.9
 _ZNK4KWin19OffscreenQuickScene8rootItemEv@Base 4:5.24.3-deepin.1.9
 _ZNK4KWin19WindowMotionManager13windowAtPointE6QPointb@Base 4:5.24.3-deepin.1.9
 _ZNK4KWin19WindowMotionManager14targetGeometryEPNS_12EffectWindowE@Base 4:5.24.3-deepin.1.9
 _ZNK4KWin19WindowMotionManager19transformedGeometryEPNS_12EffectWindowE@Base 4:5.24.3-deepin.1.9
 _ZNK4KWin6Effect10metaObjectEv@Base 4:5.24.3-deepin.1.9
 _ZNK4KWin6Effect13x11RootWindowEv@Base 4:5.24.3-deepin.1.9
 _ZNK4KWin6Effect13xcbConnectionEv@Base 4:5.24.3-deepin.1.9
 _ZNK4KWin6Effect19blocksDirectScanoutEv@Base 4:5.24.3-deepin.1.9
 _ZNK4KWin6Effect28requestedEffectChainPositionEv@Base 4:5.24.3-deepin.1.9
 _ZNK4KWin6Effect5debugERK7QString@Base 4:5.24.3-deepin.1.9
 _ZNK4KWin6Effect8isActiveEv@Base 4:5.24.3-deepin.1.9
 _ZNK4KWin7AniData8isActiveEv@Base 4:5.24.3-deepin.1.9
 _ZNK4KWin7AniData9debugInfoEv@Base 4:5.24.3-deepin.1.9
 _ZNK4KWin8TimeLine11easingCurveEv@Base 4:5.24.3-deepin.1.9
 _ZNK4KWin8TimeLine18sourceRedirectModeEv@Base 4:5.24.3-deepin.1.9
 _ZNK4KWin8TimeLine18targetRedirectModeEv@Base 4:5.24.3-deepin.1.9
 _ZNK4KWin8TimeLine4doneEv@Base 4:5.24.3-deepin.1.9
 _ZNK4KWin8TimeLine5valueEv@Base 4:5.24.3-deepin.1.9
 _ZNK4KWin8TimeLine7elapsedEv@Base 4:5.24.3-deepin.1.9
 _ZNK4KWin8TimeLine7runningEv@Base 4:5.24.3-deepin.1.9
 _ZNK4KWin8TimeLine8durationEv@Base 4:5.24.3-deepin.1.9
 _ZNK4KWin8TimeLine8progressEv@Base 4:5.24.3-deepin.1.9
 _ZNK4KWin8TimeLine9directionEv@Base 4:5.24.3-deepin.1.9
 _ZNK4KWin9PaintData11translationEv@Base 4:5.24.3-deepin.1.9
 _ZNK4KWin9PaintData12rotationAxisEv@Base 4:5.24.3-deepin.1.9
 _ZNK4KWin9PaintData12xTranslationEv@Base 4:5.24.3-deepin.1.9
 _ZNK4KWin9PaintData12yTranslationEv@Base 4:5.24.3-deepin.1.9
 _ZNK4KWin9PaintData12zTranslationEv@Base 4:5.24.3-deepin.1.9
 _ZNK4KWin9PaintData13rotationAngleEv@Base 4:5.24.3-deepin.1.9
 _ZNK4KWin9PaintData14rotationOriginEv@Base 4:5.24.3-deepin.1.9
 _ZNK4KWin9PaintData5scaleEv@Base 4:5.24.3-deepin.1.9
 _ZNK4KWin9PaintData6xScaleEv@Base 4:5.24.3-deepin.1.9
 _ZNK4KWin9PaintData6yScaleEv@Base 4:5.24.3-deepin.1.9
 _ZNK4KWin9PaintData6zScaleEv@Base 4:5.24.3-deepin.1.9
 _ZTIN4KWin11EffectFrameE@Base 4:5.24.3-deepin.1.9
 _ZTIN4KWin12DeformEffectE@Base 4:5.24.3-deepin.1.9
 _ZTIN4KWin12EffectScreenE@Base 4:5.24.3-deepin.1.9
 _ZTIN4KWin12EffectWindowE@Base 4:5.24.3-deepin.1.9
 _ZTIN4KWin14EffectsHandlerE@Base 4:5.24.3-deepin.1.9
 _ZTIN4KWin14QuickSceneViewE@Base 4:5.24.3-deepin.1.9
 _ZTIN4KWin15AnimationEffectE@Base 4:5.24.3-deepin.1.9
 _ZTIN4KWin15ScreenPaintDataE@Base 4:5.24.3-deepin.1.9
 _ZTIN4KWin15WindowPaintDataE@Base 4:5.24.3-deepin.1.9
 _ZTIN4KWin16EffectsHandlerExE@Base 4:5.24.3-deepin.1.9
 _ZTIN4KWin16QuickSceneEffectE@Base 4:5.24.3-deepin.1.9
 _ZTIN4KWin17EffectWindowGroupE@Base 4:5.24.3-deepin.1.9
 _ZTIN4KWin18OffscreenQuickViewE@Base 4:5.24.3-deepin.1.9
 _ZTIN4KWin19EffectPluginFactoryE@Base 4:5.24.3-deepin.1.9
 _ZTIN4KWin19OffscreenQuickSceneE@Base 4:5.24.3-deepin.1.9
 _ZTIN4KWin6EffectE@Base 4:5.24.3-deepin.1.9
 _ZTIN4KWin9PaintDataE@Base 4:5.24.3-deepin.1.9
 _ZTSN4KWin11EffectFrameE@Base 4:5.24.3-deepin.1.9
 _ZTSN4KWin12DeformEffectE@Base 4:5.24.3-deepin.1.9
 _ZTSN4KWin12EffectScreenE@Base 4:5.24.3-deepin.1.9
 _ZTSN4KWin12EffectWindowE@Base 4:5.24.3-deepin.1.9
 _ZTSN4KWin14EffectsHandlerE@Base 4:5.24.3-deepin.1.9
 _ZTSN4KWin14QuickSceneViewE@Base 4:5.24.3-deepin.1.9
 _ZTSN4KWin15AnimationEffectE@Base 4:5.24.3-deepin.1.9
 _ZTSN4KWin15ScreenPaintDataE@Base 4:5.24.3-deepin.1.9
 _ZTSN4KWin15WindowPaintDataE@Base 4:5.24.3-deepin.1.9
 _ZTSN4KWin16EffectsHandlerExE@Base 4:5.24.3-deepin.1.9
 _ZTSN4KWin16QuickSceneEffectE@Base 4:5.24.3-deepin.1.9
 _ZTSN4KWin17EffectWindowGroupE@Base 4:5.24.3-deepin.1.9
 _ZTSN4KWin18OffscreenQuickViewE@Base 4:5.24.3-deepin.1.9
 _ZTSN4KWin19EffectPluginFactoryE@Base 4:5.24.3-deepin.1.9
 _ZTSN4KWin19OffscreenQuickSceneE@Base 4:5.24.3-deepin.1.9
 _ZTSN4KWin6EffectE@Base 4:5.24.3-deepin.1.9
 _ZTSN4KWin9PaintDataE@Base 4:5.24.3-deepin.1.9
 _ZTVN4KWin11EffectFrameE@Base 4:5.24.3-deepin.1.9
 _ZTVN4KWin12DeformEffectE@Base 4:5.24.3-deepin.1.9
 _ZTVN4KWin12EffectScreenE@Base 4:5.24.3-deepin.1.9
 _ZTVN4KWin12EffectWindowE@Base 4:5.24.3-deepin.1.9
 _ZTVN4KWin14EffectsHandlerE@Base 4:5.24.3-deepin.1.9
 _ZTVN4KWin14QuickSceneViewE@Base 4:5.24.3-deepin.1.9
 _ZTVN4KWin15AnimationEffectE@Base 4:5.24.3-deepin.1.9
 _ZTVN4KWin15ScreenPaintDataE@Base 4:5.24.3-deepin.1.9
 _ZTVN4KWin15WindowPaintDataE@Base 4:5.24.3-deepin.1.9
 _ZTVN4KWin16EffectsHandlerExE@Base 4:5.24.3-deepin.1.9
 _ZTVN4KWin16QuickSceneEffectE@Base 4:5.24.3-deepin.1.9
 _ZTVN4KWin17EffectWindowGroupE@Base 4:5.24.3-deepin.1.9
 _ZTVN4KWin18OffscreenQuickViewE@Base 4:5.24.3-deepin.1.9
 _ZTVN4KWin19EffectPluginFactoryE@Base 4:5.24.3-deepin.1.9
 _ZTVN4KWin19OffscreenQuickSceneE@Base 4:5.24.3-deepin.1.9
 _ZTVN4KWin6EffectE@Base 4:5.24.3-deepin.1.9
 _ZTVN4KWin9PaintDataE@Base 4:5.24.3-deepin.1.9
libdeepin-kwinglutils.so.13 libdeepin-kwinxrenderutils13 #MINVER#
 _ZN4KWin10GLPlatform10s_platformE@Base 4:5.24.3-deepin.1.9
 _ZN4KWin10GLPlatform14driverToStringENS_6DriverE@Base 4:5.24.3-deepin.1.9
 _ZN4KWin10GLPlatform15driverToString8ENS_6DriverE@Base 4:5.24.3-deepin.1.9
 _ZN4KWin10GLPlatform15versionToStringEx@Base 4:5.24.3-deepin.1.9
 _ZN4KWin10GLPlatform16versionToString8Ex@Base 4:5.24.3-deepin.1.9
 _ZN4KWin10GLPlatform17chipClassToStringENS_9ChipClassE@Base 4:5.24.3-deepin.1.9
 _ZN4KWin10GLPlatform18chipClassToString8ENS_9ChipClassE@Base 4:5.24.3-deepin.1.9
 _ZN4KWin10GLPlatform6detectENS_23OpenGLPlatformInterfaceE@Base 4:5.24.3-deepin.1.9
 _ZN4KWin10GLPlatform7cleanupEv@Base 4:5.24.3-deepin.1.9
 _ZN4KWin10GLPlatformC1Ev@Base 4:5.24.3-deepin.1.9
 _ZN4KWin10GLPlatformC2Ev@Base 4:5.24.3-deepin.1.9
 _ZN4KWin10GLPlatformD1Ev@Base 4:5.24.3-deepin.1.9
 _ZN4KWin10GLPlatformD2Ev@Base 4:5.24.3-deepin.1.9
 _ZN4KWin12checkGLErrorEPKc@Base 4:5.24.3-deepin.1.9
 _ZN4KWin12hasGLVersionEiii@Base 4:5.24.3-deepin.1.9
 _ZN4KWin13ShaderManager10pushShaderE6QFlagsINS_11ShaderTraitEE@Base 4:5.24.3-deepin.1.9
 _ZN4KWin13ShaderManager10pushShaderEPNS_8GLShaderE@Base 4:5.24.3-deepin.1.9
 _ZN4KWin13ShaderManager14generateShaderE6QFlagsINS_11ShaderTraitEE@Base 4:5.24.3-deepin.1.9
 _ZN4KWin13ShaderManager15s_shaderManagerE@Base 4:5.24.3-deepin.1.9
 _ZN4KWin13ShaderManager18loadShaderFromCodeERK10QByteArrayS3_@Base 4:5.24.3-deepin.1.9
 _ZN4KWin13ShaderManager20generateCustomShaderE6QFlagsINS_11ShaderTraitEERK10QByteArrayS6_@Base 4:5.24.3-deepin.1.9
 _ZN4KWin13ShaderManager21bindFragDataLocationsEPNS_8GLShaderE@Base 4:5.24.3-deepin.1.9
 _ZN4KWin13ShaderManager22generateShaderFromFileE6QFlagsINS_11ShaderTraitEERK7QStringS6_@Base 4:5.24.3-deepin.1.9
 _ZN4KWin13ShaderManager6shaderE6QFlagsINS_11ShaderTraitEE@Base 4:5.24.3-deepin.1.9
 _ZN4KWin13ShaderManager7cleanupEv@Base 4:5.24.3-deepin.1.9
 _ZN4KWin13ShaderManager8instanceEv@Base 4:5.24.3-deepin.1.9
 _ZN4KWin13ShaderManager9popShaderEv@Base 4:5.24.3-deepin.1.9
 _ZN4KWin13ShaderManagerC1Ev@Base 4:5.24.3-deepin.1.9
 _ZN4KWin13ShaderManagerC2Ev@Base 4:5.24.3-deepin.1.9
 _ZN4KWin13ShaderManagerD1Ev@Base 4:5.24.3-deepin.1.9
 _ZN4KWin13ShaderManagerD2Ev@Base 4:5.24.3-deepin.1.9
 _ZN4KWin14GLRenderTarget10initStaticEv@Base 4:5.24.3-deepin.1.9
 _ZN4KWin14GLRenderTarget10sSupportedE@Base 4:5.24.3-deepin.1.9
 _ZN4KWin14GLRenderTarget13attachTextureERKNS_9GLTextureE@Base 4:5.24.3-deepin.1.9
 _ZN4KWin14GLRenderTarget13blitSupportedEv@Base 4:5.24.3-deepin.1.9
 _ZN4KWin14GLRenderTarget13detachTextureEv@Base 4:5.24.3-deepin.1.9
 _ZN4KWin14GLRenderTarget15popRenderTargetEv@Base 4:5.24.3-deepin.1.9
 _ZN4KWin14GLRenderTarget15s_blitSupportedE@Base 4:5.24.3-deepin.1.9
 _ZN4KWin14GLRenderTarget15s_renderTargetsE@Base 4:5.24.3-deepin.1.9
 _ZN4KWin14GLRenderTarget16pushRenderTargetEPS0_@Base 4:5.24.3-deepin.1.9
 _ZN4KWin14GLRenderTarget17pushRenderTargetsE6QStackIPS0_E@Base 4:5.24.3-deepin.1.9
 _ZN4KWin14GLRenderTarget17s_kwinFramebufferE@Base 4:5.24.3-deepin.1.9
 _ZN4KWin14GLRenderTarget19blitFromFramebufferERK5QRectS3_j@Base 4:5.24.3-deepin.1.9
 _ZN4KWin14GLRenderTarget19isRenderTargetBoundEv@Base 4:5.24.3-deepin.1.9
 _ZN4KWin14GLRenderTarget19s_virtualScreenSizeE@Base 4:5.24.3-deepin.1.9
 _ZN4KWin14GLRenderTarget20s_virtualScreenScaleE@Base 4:5.24.3-deepin.1.9
 _ZN4KWin14GLRenderTarget23s_virtualScreenGeometryE@Base 4:5.24.3-deepin.1.9
 _ZN4KWin14GLRenderTarget23s_virtualScreenViewportE@Base 4:5.24.3-deepin.1.9
 _ZN4KWin14GLRenderTarget6enableEv@Base 4:5.24.3-deepin.1.9
 _ZN4KWin14GLRenderTarget7cleanupEv@Base 4:5.24.3-deepin.1.9
 _ZN4KWin14GLRenderTarget7disableEv@Base 4:5.24.3-deepin.1.9
 _ZN4KWin14GLRenderTarget7initFBOEv@Base 4:5.24.3-deepin.1.9
 _ZN4KWin14GLRenderTargetC1ERKNS_9GLTextureE@Base 4:5.24.3-deepin.1.9
 _ZN4KWin14GLRenderTargetC1Ev@Base 4:5.24.3-deepin.1.9
 _ZN4KWin14GLRenderTargetC2ERKNS_9GLTextureE@Base 4:5.24.3-deepin.1.9
 _ZN4KWin14GLRenderTargetC2Ev@Base 4:5.24.3-deepin.1.9
 _ZN4KWin14GLRenderTargetD1Ev@Base 4:5.24.3-deepin.1.9
 _ZN4KWin14GLRenderTargetD2Ev@Base 4:5.24.3-deepin.1.9
 _ZN4KWin14GLVertexBuffer10beginFrameEv@Base 4:5.24.3-deepin.1.9
 _ZN4KWin14GLVertexBuffer10bindArraysEv@Base 4:5.24.3-deepin.1.9
 _ZN4KWin14GLVertexBuffer10endOfFrameEv@Base 4:5.24.3-deepin.1.9
 _ZN4KWin14GLVertexBuffer10initStaticEv@Base 4:5.24.3-deepin.1.9
 _ZN4KWin14GLVertexBuffer11setUseColorEb@Base 4:5.24.3-deepin.1.9
 _ZN4KWin14GLVertexBuffer12unbindArraysEv@Base 4:5.24.3-deepin.1.9
 _ZN4KWin14GLVertexBuffer14setVertexCountEi@Base 4:5.24.3-deepin.1.9
 _ZN4KWin14GLVertexBuffer15setAttribLayoutEPKNS_14GLVertexAttribEii@Base 4:5.24.3-deepin.1.9
 _ZN4KWin14GLVertexBuffer15streamingBufferEv@Base 4:5.24.3-deepin.1.9
 _ZN4KWin14GLVertexBuffer20s_virtualScreenScaleE@Base 4:5.24.3-deepin.1.9
 _ZN4KWin14GLVertexBuffer20supportsIndexedQuadsEv@Base 4:5.24.3-deepin.1.9
 _ZN4KWin14GLVertexBuffer23s_virtualScreenGeometryE@Base 4:5.24.3-deepin.1.9
 _ZN4KWin14GLVertexBuffer3mapEm@Base 4:5.24.3-deepin.1.9
 _ZN4KWin14GLVertexBuffer4drawERK7QRegionjiib@Base 4:5.24.3-deepin.1.9
 _ZN4KWin14GLVertexBuffer4drawEjii@Base 4:5.24.3-deepin.1.9
 _ZN4KWin14GLVertexBuffer5resetEv@Base 4:5.24.3-deepin.1.9
 _ZN4KWin14GLVertexBuffer5unmapEv@Base 4:5.24.3-deepin.1.9
 _ZN4KWin14GLVertexBuffer6renderERK7QRegionjb@Base 4:5.24.3-deepin.1.9
 _ZN4KWin14GLVertexBuffer6renderEj@Base 4:5.24.3-deepin.1.9
 _ZN4KWin14GLVertexBuffer7cleanupEv@Base 4:5.24.3-deepin.1.9
 _ZN4KWin14GLVertexBuffer7setDataEPKvm@Base 4:5.24.3-deepin.1.9
 _ZN4KWin14GLVertexBuffer7setDataEiiPKfS2_@Base 4:5.24.3-deepin.1.9
 _ZN4KWin14GLVertexBuffer8setColorERK6QColorb@Base 4:5.24.3-deepin.1.9
 _ZN4KWin14GLVertexBufferC1ENS0_9UsageHintE@Base 4:5.24.3-deepin.1.9
 _ZN4KWin14GLVertexBufferC2ENS0_9UsageHintE@Base 4:5.24.3-deepin.1.9
 _ZN4KWin14GLVertexBufferD1Ev@Base 4:5.24.3-deepin.1.9
 _ZN4KWin14GLVertexBufferD2Ev@Base 4:5.24.3-deepin.1.9
 _ZN4KWin14hasGLExtensionERK10QByteArray@Base 4:5.24.3-deepin.1.9
 _ZN4KWin15EGLImageTextureC1EPvS1_iRK5QSize@Base 4:5.24.3-deepin.1.9
 _ZN4KWin15EGLImageTextureC2EPvS1_iRK5QSize@Base 4:5.24.3-deepin.1.9
 _ZN4KWin15EGLImageTextureD0Ev@Base 4:5.24.3-deepin.1.9
 _ZN4KWin15EGLImageTextureD1Ev@Base 4:5.24.3-deepin.1.9
 _ZN4KWin15EGLImageTextureD2Ev@Base 4:5.24.3-deepin.1.9
 _ZN4KWin16GLTexturePrivate10initStaticEv@Base 4:5.24.3-deepin.1.9
 _ZN4KWin16GLTexturePrivate12updateMatrixEv@Base 4:5.24.3-deepin.1.9
 _ZN4KWin16GLTexturePrivate16s_supportsARGB32E@Base 4:5.24.3-deepin.1.9
 _ZN4KWin16GLTexturePrivate16s_supportsUnpackE@Base 4:5.24.3-deepin.1.9
 _ZN4KWin16GLTexturePrivate24s_supportsTextureStorageE@Base 4:5.24.3-deepin.1.9
 _ZN4KWin16GLTexturePrivate24s_supportsTextureSwizzleE@Base 4:5.24.3-deepin.1.9
 _ZN4KWin16GLTexturePrivate25s_supportsTextureFormatRGE@Base 4:5.24.3-deepin.1.9
 _ZN4KWin16GLTexturePrivate28s_supportsFramebufferObjectsE@Base 4:5.24.3-deepin.1.9
 _ZN4KWin16GLTexturePrivate5s_fboE@Base 4:5.24.3-deepin.1.9
 _ZN4KWin16GLTexturePrivate7cleanupEv@Base 4:5.24.3-deepin.1.9
 _ZN4KWin16GLTexturePrivate8onDamageEv@Base 4:5.24.3-deepin.1.9
 _ZN4KWin16GLTexturePrivateC1Ev@Base 4:5.24.3-deepin.1.9
 _ZN4KWin16GLTexturePrivateC2Ev@Base 4:5.24.3-deepin.1.9
 _ZN4KWin16GLTexturePrivateD0Ev@Base 4:5.24.3-deepin.1.9
 _ZN4KWin16GLTexturePrivateD1Ev@Base 4:5.24.3-deepin.1.9
 _ZN4KWin16GLTexturePrivateD2Ev@Base 4:5.24.3-deepin.1.9
 _ZN4KWin16openGLExtensionsEv@Base 4:5.24.3-deepin.1.9
 _ZN4KWin18glResolveFunctionsERKSt8functionIFPFvvEPKcEE@Base 4:5.24.3-deepin.1.9
 _ZN4KWin19epoxy_glReadnPixelsE@Base 4:5.24.3-deepin.1.9
 _ZN4KWin21epoxy_glGetnUniformfvE@Base 4:5.24.3-deepin.1.9
 _ZN4KWin30epoxy_glGetGraphicsResetStatusE@Base 4:5.24.3-deepin.1.9
 _ZN4KWin6initGLERKSt8functionIFPFvvEPKcEE@Base 4:5.24.3-deepin.1.9
 _ZN4KWin8GLShader10setUniformENS0_10IntUniformEi@Base 4:5.24.3-deepin.1.9
 _ZN4KWin8GLShader10setUniformENS0_11Vec2UniformERK9QVector2D@Base 4:5.24.3-deepin.1.9
 _ZN4KWin8GLShader10setUniformENS0_11Vec4UniformERK9QVector4D@Base 4:5.24.3-deepin.1.9
 _ZN4KWin8GLShader10setUniformENS0_12ColorUniformERK6QColor@Base 4:5.24.3-deepin.1.9
 _ZN4KWin8GLShader10setUniformENS0_12ColorUniformERK9QVector4D@Base 4:5.24.3-deepin.1.9
 _ZN4KWin8GLShader10setUniformENS0_12FloatUniformEf@Base 4:5.24.3-deepin.1.9
 _ZN4KWin8GLShader10setUniformENS0_13MatrixUniformERK10QMatrix4x4@Base 4:5.24.3-deepin.1.9
 _ZN4KWin8GLShader10setUniformEPKcRK10QMatrix4x4@Base 4:5.24.3-deepin.1.9
 _ZN4KWin8GLShader10setUniformEPKcRK6QColor@Base 4:5.24.3-deepin.1.9
 _ZN4KWin8GLShader10setUniformEPKcRK9QVector2D@Base 4:5.24.3-deepin.1.9
 _ZN4KWin8GLShader10setUniformEPKcRK9QVector3D@Base 4:5.24.3-deepin.1.9
 _ZN4KWin8GLShader10setUniformEPKcRK9QVector4D@Base 4:5.24.3-deepin.1.9
 _ZN4KWin8GLShader10setUniformEPKcf@Base 4:5.24.3-deepin.1.9
 _ZN4KWin8GLShader10setUniformEPKci@Base 4:5.24.3-deepin.1.9
 _ZN4KWin8GLShader10setUniformEiRK10QMatrix4x4@Base 4:5.24.3-deepin.1.9
 _ZN4KWin8GLShader10setUniformEiRK6QColor@Base 4:5.24.3-deepin.1.9
 _ZN4KWin8GLShader10setUniformEiRK9QVector2D@Base 4:5.24.3-deepin.1.9
 _ZN4KWin8GLShader10setUniformEiRK9QVector3D@Base 4:5.24.3-deepin.1.9
 _ZN4KWin8GLShader10setUniformEiRK9QVector4D@Base 4:5.24.3-deepin.1.9
 _ZN4KWin8GLShader10setUniformEif@Base 4:5.24.3-deepin.1.9
 _ZN4KWin8GLShader10setUniformEii@Base 4:5.24.3-deepin.1.9
 _ZN4KWin8GLShader12setAttributeEPKcf@Base 4:5.24.3-deepin.1.9
 _ZN4KWin8GLShader13loadFromFilesERK7QStringS3_@Base 4:5.24.3-deepin.1.9
 _ZN4KWin8GLShader15uniformLocationEPKc@Base 4:5.24.3-deepin.1.9
 _ZN4KWin8GLShader16resolveLocationsEv@Base 4:5.24.3-deepin.1.9
 _ZN4KWin8GLShader17attributeLocationEPKc@Base 4:5.24.3-deepin.1.9
 _ZN4KWin8GLShader19getUniformMatrix4x4EPKc@Base 4:5.24.3-deepin.1.9
 _ZN4KWin8GLShader20bindFragDataLocationEPKci@Base 4:5.24.3-deepin.1.9
 _ZN4KWin8GLShader21bindAttributeLocationEPKci@Base 4:5.24.3-deepin.1.9
 _ZN4KWin8GLShader4bindEv@Base 4:5.24.3-deepin.1.9
 _ZN4KWin8GLShader4linkEv@Base 4:5.24.3-deepin.1.9
 _ZN4KWin8GLShader4loadERK10QByteArrayS3_@Base 4:5.24.3-deepin.1.9
 _ZN4KWin8GLShader6unbindEv@Base 4:5.24.3-deepin.1.9
 _ZN4KWin8GLShaderC1ERK7QStringS3_j@Base 4:5.24.3-deepin.1.9
 _ZN4KWin8GLShaderC1Ej@Base 4:5.24.3-deepin.1.9
 _ZN4KWin8GLShaderC2ERK7QStringS3_j@Base 4:5.24.3-deepin.1.9
 _ZN4KWin8GLShaderC2Ej@Base 4:5.24.3-deepin.1.9
 _ZN4KWin8GLShaderD1Ev@Base 4:5.24.3-deepin.1.9
 _ZN4KWin8GLShaderD2Ev@Base 4:5.24.3-deepin.1.9
 _ZN4KWin9GLTexture10setSwizzleEjjjj@Base 4:5.24.3-deepin.1.9
 _ZN4KWin9GLTexture11setWrapModeEj@Base 4:5.24.3-deepin.1.9
 _ZN4KWin9GLTexture12setYInvertedEb@Base 4:5.24.3-deepin.1.9
 _ZN4KWin9GLTexture15generateMipmapsEv@Base 4:5.24.3-deepin.1.9
 _ZN4KWin9GLTexture15supportsSwizzleEv@Base 4:5.24.3-deepin.1.9
 _ZN4KWin9GLTexture16supportsFormatRGEv@Base 4:5.24.3-deepin.1.9
 _ZN4KWin9GLTexture26framebufferObjectSupportedEv@Base 4:5.24.3-deepin.1.9
 _ZN4KWin9GLTexture4bindEv@Base 4:5.24.3-deepin.1.9
 _ZN4KWin9GLTexture5clearEv@Base 4:5.24.3-deepin.1.9
 _ZN4KWin9GLTexture6createEv@Base 4:5.24.3-deepin.1.9
 _ZN4KWin9GLTexture6renderERK7QRegionRK5QRectb@Base 4:5.24.3-deepin.1.9
 _ZN4KWin9GLTexture6unbindEv@Base 4:5.24.3-deepin.1.9
 _ZN4KWin9GLTexture6updateERK6QImageRK6QPointRK5QRect@Base 4:5.24.3-deepin.1.9
 _ZN4KWin9GLTexture7discardEv@Base 4:5.24.3-deepin.1.9
 _ZN4KWin9GLTexture7setSizeERK5QSize@Base 4:5.24.3-deepin.1.9
 _ZN4KWin9GLTexture8setDirtyEv@Base 4:5.24.3-deepin.1.9
 _ZN4KWin9GLTexture9setFilterEj@Base 4:5.24.3-deepin.1.9
 _ZN4KWin9GLTextureC1ERK6QImagej@Base 4:5.24.3-deepin.1.9
 _ZN4KWin9GLTextureC1ERK7QPixmapj@Base 4:5.24.3-deepin.1.9
 _ZN4KWin9GLTextureC1ERK7QString@Base 4:5.24.3-deepin.1.9
 _ZN4KWin9GLTextureC1ERKS0_@Base 4:5.24.3-deepin.1.9
 _ZN4KWin9GLTextureC1ERNS_16GLTexturePrivateE@Base 4:5.24.3-deepin.1.9
 _ZN4KWin9GLTextureC1Ej@Base 4:5.24.3-deepin.1.9
 _ZN4KWin9GLTextureC1EjRK5QSizeib@Base 4:5.24.3-deepin.1.9
 _ZN4KWin9GLTextureC1Ejiiib@Base 4:5.24.3-deepin.1.9
 _ZN4KWin9GLTextureC1EjjRK5QSizei@Base 4:5.24.3-deepin.1.9
 _ZN4KWin9GLTextureC2ERK6QImagej@Base 4:5.24.3-deepin.1.9
 _ZN4KWin9GLTextureC2ERK7QPixmapj@Base 4:5.24.3-deepin.1.9
 _ZN4KWin9GLTextureC2ERK7QString@Base 4:5.24.3-deepin.1.9
 _ZN4KWin9GLTextureC2ERKS0_@Base 4:5.24.3-deepin.1.9
 _ZN4KWin9GLTextureC2ERNS_16GLTexturePrivateE@Base 4:5.24.3-deepin.1.9
 _ZN4KWin9GLTextureC2Ej@Base 4:5.24.3-deepin.1.9
 _ZN4KWin9GLTextureC2EjRK5QSizeib@Base 4:5.24.3-deepin.1.9
 _ZN4KWin9GLTextureC2Ejiiib@Base 4:5.24.3-deepin.1.9
 _ZN4KWin9GLTextureC2EjjRK5QSizei@Base 4:5.24.3-deepin.1.9
 _ZN4KWin9GLTextureD0Ev@Base 4:5.24.3-deepin.1.9
 _ZN4KWin9GLTextureD1Ev@Base 4:5.24.3-deepin.1.9
 _ZN4KWin9GLTextureD2Ev@Base 4:5.24.3-deepin.1.9
 _ZN4KWin9GLTextureaSERKS0_@Base 4:5.24.3-deepin.1.9
 _ZN4KWin9cleanupGLEv@Base 4:5.24.3-deepin.1.9
 _ZNK4KWin10GLPlatform10isPanfrostEv@Base 4:5.24.3-deepin.1.9
 _ZNK4KWin10GLPlatform11glslVersionEv@Base 4:5.24.3-deepin.1.9
 _ZNK4KWin10GLPlatform11mesaVersionEv@Base 4:5.24.3-deepin.1.9
 _ZNK4KWin10GLPlatform12isMesaDriverEv@Base 4:5.24.3-deepin.1.9
 _ZNK4KWin10GLPlatform12isVirtualBoxEv@Base 4:5.24.3-deepin.1.9
 _ZNK4KWin10GLPlatform12printResultsEv@Base 4:5.24.3-deepin.1.9
 _ZNK4KWin10GLPlatform13driverVersionEv@Base 4:5.24.3-deepin.1.9
 _ZNK4KWin10GLPlatform13kernelVersionEv@Base 4:5.24.3-deepin.1.9
 _ZNK4KWin10GLPlatform13serverVersionEv@Base 4:5.24.3-deepin.1.9
 _ZNK4KWin10GLPlatform14galliumVersionEv@Base 4:5.24.3-deepin.1.9
 _ZNK4KWin10GLPlatform14glVendorStringEv@Base 4:5.24.3-deepin.1.9
 _ZNK4KWin10GLPlatform14isLooseBindingEv@Base 4:5.24.3-deepin.1.9
 _ZNK4KWin10GLPlatform15glVersionStringEv@Base 4:5.24.3-deepin.1.9
 _ZNK4KWin10GLPlatform15isGalliumDriverEv@Base 4:5.24.3-deepin.1.9
 _ZNK4KWin10GLPlatform16glRendererStringEv@Base 4:5.24.3-deepin.1.9
 _ZNK4KWin10GLPlatform16isVirtualMachineEv@Base 4:5.24.3-deepin.1.9
 _ZNK4KWin10GLPlatform17platformInterfaceEv@Base 4:5.24.3-deepin.1.9
 _ZNK4KWin10GLPlatform19isSoftwareEmulationEv@Base 4:5.24.3-deepin.1.9
 _ZNK4KWin10GLPlatform19preferBufferSubDataEv@Base 4:5.24.3-deepin.1.9
 _ZNK4KWin10GLPlatform21recommendedCompositorEv@Base 4:5.24.3-deepin.1.9
 _ZNK4KWin10GLPlatform30glShadingLanguageVersionStringEv@Base 4:5.24.3-deepin.1.9
 _ZNK4KWin10GLPlatform6driverEv@Base 4:5.24.3-deepin.1.9
 _ZNK4KWin10GLPlatform6isGLESEv@Base 4:5.24.3-deepin.1.9
 _ZNK4KWin10GLPlatform7isIntelEv@Base 4:5.24.3-deepin.1.9
 _ZNK4KWin10GLPlatform7isVirglEv@Base 4:5.24.3-deepin.1.9
 _ZNK4KWin10GLPlatform8isAdrenoEv@Base 4:5.24.3-deepin.1.9
 _ZNK4KWin10GLPlatform8isNvidiaEv@Base 4:5.24.3-deepin.1.9
 _ZNK4KWin10GLPlatform8isRadeonEv@Base 4:5.24.3-deepin.1.9
 _ZNK4KWin10GLPlatform8isVMwareEv@Base 4:5.24.3-deepin.1.9
 _ZNK4KWin10GLPlatform8supportsENS_9GLFeatureE@Base 4:5.24.3-deepin.1.9
 _ZNK4KWin10GLPlatform9chipClassEv@Base 4:5.24.3-deepin.1.9
 _ZNK4KWin10GLPlatform9glVersionEv@Base 4:5.24.3-deepin.1.9
 _ZNK4KWin13ShaderManager13isShaderBoundEv@Base 4:5.24.3-deepin.1.9
 _ZNK4KWin13ShaderManager14getBoundShaderEv@Base 4:5.24.3-deepin.1.9
 _ZNK4KWin13ShaderManager20generateVertexSourceE6QFlagsINS_11ShaderTraitEE@Base 4:5.24.3-deepin.1.9
 _ZNK4KWin13ShaderManager22bindAttributeLocationsEPNS_8GLShaderE@Base 4:5.24.3-deepin.1.9
 _ZNK4KWin13ShaderManager22generateFragmentSourceE6QFlagsINS_11ShaderTraitEE@Base 4:5.24.3-deepin.1.9
 _ZNK4KWin14GLVertexBuffer10isUseColorEv@Base 4:5.24.3-deepin.1.9
 _ZNK4KWin8GLShader13prepareSourceEjRK10QByteArray@Base 4:5.24.3-deepin.1.9
 _ZNK4KWin8GLShader7compileEjjRK10QByteArray@Base 4:5.24.3-deepin.1.9
 _ZNK4KWin9GLTexture11isYInvertedEv@Base 4:5.24.3-deepin.1.9
 _ZNK4KWin9GLTexture14internalFormatEv@Base 4:5.24.3-deepin.1.9
 _ZNK4KWin9GLTexture4sizeEv@Base 4:5.24.3-deepin.1.9
 _ZNK4KWin9GLTexture5widthEv@Base 4:5.24.3-deepin.1.9
 _ZNK4KWin9GLTexture6filterEv@Base 4:5.24.3-deepin.1.9
 _ZNK4KWin9GLTexture6heightEv@Base 4:5.24.3-deepin.1.9
 _ZNK4KWin9GLTexture6isNullEv@Base 4:5.24.3-deepin.1.9
 _ZNK4KWin9GLTexture6matrixENS_21TextureCoordinateTypeE@Base 4:5.24.3-deepin.1.9
 _ZNK4KWin9GLTexture6targetEv@Base 4:5.24.3-deepin.1.9
 _ZNK4KWin9GLTexture7isDirtyEv@Base 4:5.24.3-deepin.1.9
 _ZNK4KWin9GLTexture7textureEv@Base 4:5.24.3-deepin.1.9
 _ZNK4KWin9GLTexture7toImageEv@Base 4:5.24.3-deepin.1.9
 _ZTI11QSharedData@Base 4:5.24.3-deepin.1.9
 _ZTIN4KWin15EGLImageTextureE@Base 4:5.24.3-deepin.1.9
 _ZTIN4KWin16GLTexturePrivateE@Base 4:5.24.3-deepin.1.9
 _ZTIN4KWin9GLTextureE@Base 4:5.24.3-deepin.1.9
 _ZTS11QSharedData@Base 4:5.24.3-deepin.1.9
 _ZTSN4KWin15EGLImageTextureE@Base 4:5.24.3-deepin.1.9
 _ZTSN4KWin16GLTexturePrivateE@Base 4:5.24.3-deepin.1.9
 _ZTSN4KWin9GLTextureE@Base 4:5.24.3-deepin.1.9
 _ZTVN4KWin15EGLImageTextureE@Base 4:5.24.3-deepin.1.9
 _ZTVN4KWin16GLTexturePrivateE@Base 4:5.24.3-deepin.1.9
 _ZTVN4KWin9GLTextureE@Base 4:5.24.3-deepin.1.9
libdeepin-kwinxrenderutils.so.13 libdeepin-kwinxrenderutils13 #MINVER#
 _ZN4KWin11preMultiplyERK6QColorf@Base 4:5.24.3-deepin.1.9
 _ZN4KWin11xRenderFillERK18xcb_render_color_t@Base 4:5.24.3-deepin.1.9
 _ZN4KWin11xRenderFillERK6QColor@Base 4:5.24.3-deepin.1.9
 _ZN4KWin12XFixesRegionC1ERK7QRegion@Base 4:5.24.3-deepin.1.9
 _ZN4KWin12XFixesRegionC2ERK7QRegion@Base 4:5.24.3-deepin.1.9
 _ZN4KWin12XFixesRegionD0Ev@Base 4:5.24.3-deepin.1.9
 _ZN4KWin12XFixesRegionD1Ev@Base 4:5.24.3-deepin.1.9
 _ZN4KWin12XFixesRegionD2Ev@Base 4:5.24.3-deepin.1.9
 _ZN4KWin12XRenderUtils14findPictFormatEj@Base 4:5.24.3-deepin.1.9
 _ZN4KWin12XRenderUtils18findPictFormatInfoEj@Base 4:5.24.3-deepin.1.9
 _ZN4KWin12XRenderUtils4initEP16xcb_connection_tj@Base 4:5.24.3-deepin.1.9
 _ZN4KWin12XRenderUtils7cleanupEv@Base 4:5.24.3-deepin.1.9
 _ZN4KWin14XRenderPicture9fromImageERK6QImage@Base 4:5.24.3-deepin.1.9
 _ZN4KWin14XRenderPictureC1ERK6QImage@Base 4:5.24.3-deepin.1.9
 _ZN4KWin14XRenderPictureC1Eji@Base 4:5.24.3-deepin.1.9
 _ZN4KWin14XRenderPictureC2ERK6QImage@Base 4:5.24.3-deepin.1.9
 _ZN4KWin14XRenderPictureC2Eji@Base 4:5.24.3-deepin.1.9
 _ZN4KWin16xRenderOffscreenEv@Base 4:5.24.3-deepin.1.9
 _ZN4KWin16xRenderPopTargetEv@Base 4:5.24.3-deepin.1.9
 _ZN4KWin17xRenderPushTargetEPNS_14XRenderPictureE@Base 4:5.24.3-deepin.1.9
 _ZN4KWin18XRenderPictureDataD1Ev@Base 4:5.24.3-deepin.1.9
 _ZN4KWin18XRenderPictureDataD2Ev@Base 4:5.24.3-deepin.1.9
 _ZN4KWin19setXRenderOffscreenEb@Base 4:5.24.3-deepin.1.9
 _ZN4KWin19xRenderBlendPictureEd@Base 4:5.24.3-deepin.1.9
 _ZN4KWin22xRenderOffscreenTargetEv@Base 4:5.24.3-deepin.1.9
 _ZN4KWin28scene_xRenderOffscreenTargetEv@Base 4:5.24.3-deepin.1.9
 _ZN4KWin31scene_setXRenderOffscreenTargetEj@Base 4:5.24.3-deepin.1.9
 _ZTIN4KWin12XFixesRegionE@Base 4:5.24.3-deepin.1.9
 _ZTSN4KWin12XFixesRegionE@Base 4:5.24.3-deepin.1.9
 _ZTVN4KWin12XFixesRegionE@Base 4:5.24.3-deepin.1.9
